TN:
SF:/home/user/Desktop/VS projekat/2023_Analysis_timesweeper/06-timesweeper/timesweeper/Source/Building.cpp
FN:3,_ZN8BuildingC2ENS_9BuildingsE
FNDA:0,_ZN8BuildingC2ENS_9BuildingsE
FNF:1
FNH:0
DA:3,0
DA:5,0
DA:7,0
DA:9,0
DA:11,0
DA:13,0
DA:15,0
DA:17,0
DA:19,0
DA:21,0
DA:23,0
DA:25,0
DA:27,0
DA:29,0
DA:31,0
DA:33,0
DA:35,0
DA:37,0
LF:18
LH:0
end_of_record
TN:
SF:/home/user/Desktop/VS projekat/2023_Analysis_timesweeper/06-timesweeper/timesweeper/Source/Character.cpp
FN:3,_ZN9CharacterC2Ev
FNDA:22,_ZN9CharacterC2Ev
FNF:1
FNH:1
DA:3,22
DA:5,22
LF:2
LH:2
end_of_record
TN:
SF:/home/user/Desktop/VS projekat/2023_Analysis_timesweeper/06-timesweeper/timesweeper/Source/DialogueBox.cpp
FN:6,_ZN11DialogueBoxC2ER5QPairIN15DialogueHandler7SpeakerE7QStringE
FNDA:0,_ZN11DialogueBoxC2ER5QPairIN15DialogueHandler7SpeakerE7QStringE
FNF:1
FNH:0
DA:6,0
DA:8,0
DA:9,0
DA:10,0
DA:12,0
DA:14,0
DA:15,0
DA:16,0
DA:20,0
DA:21,0
DA:22,0
DA:25,0
DA:26,0
DA:27,0
LF:14
LH:0
end_of_record
TN:
SF:/home/user/Desktop/VS projekat/2023_Analysis_timesweeper/06-timesweeper/timesweeper/Source/DialogueHandler.cpp
FN:12,_ZN15DialogueHandler18initializeDialogueEv
FN:62,_ZN15DialogueHandler15advanceDialogueEv
FN:90,_ZN15DialogueHandler17setDialogueActiveEb
FNDA:0,_ZN15DialogueHandler17setDialogueActiveEb
FNDA:0,_ZN15DialogueHandler15advanceDialogueEv
FNDA:18,_ZN15DialogueHandler18initializeDialogueEv
FNF:3
FNH:1
DA:12,18
DA:14,18
DA:15,18
DA:16,18
DA:18,36
DA:19,18
DA:21,18
DA:23,18
DA:24,18
DA:26,0
DA:28,0
DA:29,0
DA:32,0
DA:35,0
DA:37,0
DA:38,0
DA:40,0
DA:42,0
DA:43,0
DA:45,0
DA:46,0
DA:47,0
DA:48,0
DA:49,0
DA:50,0
DA:51,0
DA:52,0
DA:53,0
DA:54,0
DA:55,0
DA:59,0
DA:62,0
DA:64,0
DA:66,0
DA:69,0
DA:72,0
DA:74,0
DA:76,0
DA:78,0
DA:80,0
DA:81,0
DA:84,0
DA:86,0
DA:88,0
DA:90,0
DA:92,0
DA:93,0
LF:47
LH:9
end_of_record
TN:
SF:/home/user/Desktop/VS projekat/2023_Analysis_timesweeper/06-timesweeper/timesweeper/Source/DialogueTriggerBox.cpp
FN:3,_ZN18DialogueTriggerBoxC2Ev
FNDA:0,_ZN18DialogueTriggerBoxC2Ev
FNF:1
FNH:0
DA:3,0
DA:5,0
LF:2
LH:0
end_of_record
TN:
SF:/home/user/Desktop/VS projekat/2023_Analysis_timesweeper/06-timesweeper/timesweeper/Source/EnemyBoss.cpp
FN:7,_ZN9EnemyBossC2Ev
FN:15,_ZN9EnemyBoss8setLivesEi
FN:17,_ZNK9EnemyBoss8getLivesEv
FN:19,_ZN9EnemyBoss13drawHealthBarEv
FN:43,_ZN9EnemyBoss7advanceEi
FN:49,_ZN9EnemyBoss4moveEv
FN:65,_ZN9EnemyBoss14decreaseHealthEv
FNDA:0,_ZN9EnemyBossC2Ev
FNDA:0,_ZNK9EnemyBoss8getLivesEv
FNDA:0,_ZN9EnemyBoss13drawHealthBarEv
FNDA:0,_ZN9EnemyBoss8setLivesEi
FNDA:0,_ZN9EnemyBoss4moveEv
FNDA:0,_ZN9EnemyBoss14decreaseHealthEv
FNDA:0,_ZN9EnemyBoss7advanceEi
FNF:7
FNH:0
DA:7,0
DA:9,0
DA:10,0
DA:11,0
DA:12,0
DA:13,0
DA:15,0
DA:17,0
DA:19,0
DA:21,0
DA:22,0
DA:23,0
DA:26,0
DA:28,0
DA:29,0
DA:30,0
DA:31,0
DA:32,0
DA:33,0
DA:34,0
DA:37,0
DA:39,0
DA:40,0
DA:41,0
DA:43,0
DA:45,0
DA:46,0
DA:47,0
DA:49,0
DA:52,0
DA:54,0
DA:55,0
DA:59,0
DA:61,0
DA:63,0
DA:65,0
DA:67,0
DA:68,0
DA:70,0
DA:72,0
DA:74,0
DA:76,0
DA:79,0
DA:81,0
DA:83,0
DA:84,0
DA:86,0
LF:47
LH:0
end_of_record
TN:
SF:/home/user/Desktop/VS projekat/2023_Analysis_timesweeper/06-timesweeper/timesweeper/Source/EnemyCharacter.cpp
FN:10,_ZN14EnemyCharacterC2Ev
FN:20,_ZN14EnemyCharacterD2Ev
FN:20,_ZN14EnemyCharacterD0Ev
FN:25,_ZNK14EnemyCharacter8getLivesEv
FN:27,_ZN14EnemyCharacter8setLivesEi
FN:29,_ZNK14EnemyCharacter11getHealtBarEv
FN:31,_ZN14EnemyCharacter7advanceEi
FN:41,_ZN14EnemyCharacter4moveEv
FN:87,_ZN14EnemyCharacter5shootEv
FN:128,_ZN14EnemyCharacter14decreaseHealthEv
FNDA:0,_ZN14EnemyCharacter14decreaseHealthEv
FNDA:0,_ZN14EnemyCharacter4moveEv
FNDA:0,_ZN14EnemyCharacter7advanceEi
FNDA:0,_ZN14EnemyCharacterD0Ev
FNDA:0,_ZN14EnemyCharacterD2Ev
FNDA:0,_ZNK14EnemyCharacter8getLivesEv
FNDA:0,_ZNK14EnemyCharacter11getHealtBarEv
FNDA:0,_ZN14EnemyCharacter5shootEv
FNDA:0,_ZN14EnemyCharacter8setLivesEi
FNDA:0,_ZN14EnemyCharacterC2Ev
FNF:10
FNH:0
DA:10,0
DA:12,0
DA:15,0
DA:16,0
DA:17,0
DA:18,0
DA:20,0
DA:22,0
DA:23,0
DA:25,0
DA:27,0
DA:29,0
DA:31,0
DA:33,0
DA:34,0
DA:35,0
DA:36,0
DA:38,0
DA:41,0
DA:43,0
DA:45,0
DA:47,0
DA:49,0
DA:51,0
DA:52,0
DA:53,0
DA:54,0
DA:56,0
DA:57,0
DA:59,0
DA:60,0
DA:64,0
DA:66,0
DA:68,0
DA:70,0
DA:72,0
DA:73,0
DA:74,0
DA:75,0
DA:77,0
DA:78,0
DA:80,0
DA:81,0
DA:85,0
DA:87,0
DA:89,0
DA:90,0
DA:92,0
DA:94,0
DA:95,0
DA:97,0
DA:99,0
DA:100,0
DA:101,0
DA:102,0
DA:103,0
DA:108,0
DA:109,0
DA:111,0
DA:113,0
DA:114,0
DA:115,0
DA:116,0
DA:122,0
DA:125,0
DA:126,0
DA:128,0
DA:130,0
DA:132,0
DA:133,0
DA:134,0
DA:136,0
DA:138,0
DA:139,0
DA:140,0
DA:144,0
DA:146,0
LF:77
LH:0
end_of_record
TN:
SF:/home/user/Desktop/VS projekat/2023_Analysis_timesweeper/06-timesweeper/timesweeper/Source/EnemyHealthBar.cpp
FN:5,_ZN14EnemyHealthBarC2Eii
FN:16,_ZN14EnemyHealthBarD0Ev
FN:16,_ZN14EnemyHealthBarD2Ev
FNDA:0,_ZN14EnemyHealthBarD2Ev
FNDA:0,_ZN14EnemyHealthBarC2Eii
FNDA:0,_ZN14EnemyHealthBarD0Ev
FNF:3
FNH:0
DA:5,0
DA:6,0
DA:8,0
DA:9,0
DA:10,0
DA:12,0
DA:13,0
DA:14,0
DA:16,0
DA:18,0
DA:19,0
DA:20,0
LF:12
LH:0
end_of_record
TN:
SF:/home/user/Desktop/VS projekat/2023_Analysis_timesweeper/06-timesweeper/timesweeper/Source/Game.cpp
FN:16,_ZN4GameC2Ev
FN:53,_ZN4Game14mouseMoveEventEP11QMouseEvent
FN:59,_ZN4Game15mousePressEventEP11QMouseEvent
FN:68,_ZN4Game11showCreditsEv
FN:81,_ZN4Game9playMusicEv
FN:89,_ZN4Game17makeGameOverLabelEv
FN:97,_ZN4Game14makePauseLabelEv
FN:106,_ZN4Game21setCurrentLevelPortalEP6Portal
FN:108,_ZN4Game10getLevelIDEv
FN:110,_ZNK4Game10getSoundOnEv
FN:112,_ZN4Game10setSoundOnEb
FN:114,_ZNK4Game13getIsGameOverEv
FN:116,_ZN4Game13setIsGameOverEb
FN:118,_ZNK4Game5getUiEv
FN:120,_ZNK4Game16getGameOverLabelEv
FN:122,_ZNK4Game13getPauseLabelEv
FN:126,_ZN4Game11changeLevelEv
FN:175,_ZN4Game15triggerDialogueEv
FN:181,_ZN4Game12setHealthBarEv
FN:200,_ZN4Game8gameOverEv
FNDA:18,_ZN4Game11changeLevelEv
FNDA:15,_ZN4GameC2Ev
FNDA:15,_ZN4Game14makePauseLabelEv
FNDA:18,_ZN4Game9playMusicEv
FNDA:147,_ZN4Game10getLevelIDEv
FNDA:0,_ZNK4Game5getUiEv
FNDA:0,_ZN4Game10setSoundOnEb
FNDA:1,_ZNK4Game10getSoundOnEv
FNDA:0,_ZN4Game13setIsGameOverEb
FNDA:0,_ZN4Game15triggerDialogueEv
FNDA:0,_ZN4Game15mousePressEventEP11QMouseEvent
FNDA:0,_ZN4Game11showCreditsEv
FNDA:4,_ZN4Game8gameOverEv
FNDA:15,_ZN4Game17makeGameOverLabelEv
FNDA:2,_ZNK4Game13getPauseLabelEv
FNDA:2,_ZNK4Game13getIsGameOverEv
FNDA:0,_ZN4Game12setHealthBarEv
FNDA:3,_ZNK4Game16getGameOverLabelEv
FNDA:0,_ZN4Game21setCurrentLevelPortalEP6Portal
FNDA:0,_ZN4Game14mouseMoveEventEP11QMouseEvent
FNF:20
FNH:11
DA:16,15
DA:18,15
DA:19,15
DA:21,15
DA:22,15
DA:23,15
DA:25,15
DA:26,15
DA:28,15
DA:29,15
DA:30,15
DA:32,15
DA:33,15
DA:34,15
DA:36,15
DA:37,15
DA:38,15
DA:40,15
DA:41,15
DA:42,15
DA:43,15
DA:45,15
DA:47,15
DA:48,15
DA:50,15
DA:51,15
DA:53,0
DA:55,0
DA:56,0
DA:57,0
DA:59,0
DA:61,0
DA:63,0
DA:65,0
DA:66,0
DA:68,0
DA:70,0
DA:72,0
DA:73,0
DA:74,0
DA:75,0
DA:77,0
DA:78,0
DA:79,0
DA:81,18
DA:83,18
DA:85,3
DA:87,18
DA:89,15
DA:91,15
DA:92,15
DA:93,15
DA:94,15
DA:95,15
DA:97,15
DA:99,15
DA:100,15
DA:101,15
DA:102,15
DA:103,15
DA:106,0
DA:108,147
DA:110,1
DA:112,0
DA:114,2
DA:116,0
DA:118,0
DA:120,3
DA:122,2
DA:126,18
DA:128,18
DA:130,6
DA:131,6
DA:133,9
DA:134,12
DA:135,3
DA:137,0
DA:138,0
DA:143,18
DA:144,18
DA:145,18
DA:147,18
DA:149,18
DA:151,18
DA:152,18
DA:154,18
DA:156,3
DA:157,3
DA:159,18
DA:161,18
DA:163,3
DA:166,18
DA:168,18
DA:169,36
DA:170,18
DA:172,18
DA:173,18
DA:175,0
DA:177,0
DA:178,0
DA:179,0
DA:181,0
DA:183,0
DA:184,0
DA:186,0
DA:187,0
DA:189,0
DA:191,0
DA:195,0
DA:196,0
DA:197,0
DA:198,0
DA:200,4
DA:202,4
DA:203,4
DA:204,4
DA:205,4
DA:206,4
LF:118
LH:79
end_of_record
TN:
SF:/home/user/Desktop/VS projekat/2023_Analysis_timesweeper/06-timesweeper/timesweeper/Source/GunArm.cpp
FN:3,_ZN6GunArmC2Ev
FNDA:22,_ZN6GunArmC2Ev
FNF:1
FNH:1
DA:3,22
DA:5,22
DA:6,22
LF:3
LH:3
end_of_record
TN:
SF:/home/user/Desktop/VS projekat/2023_Analysis_timesweeper/06-timesweeper/timesweeper/Source/Help.cpp
FN:5,_ZN4HelpC2EP7QWidget
FN:15,_ZN4HelpD2Ev
FN:15,_ZN4HelpD0Ev
FN:20,_ZN4Help17backButtonClickedEv
FNDA:0,_ZN4Help17backButtonClickedEv
FNDA:1,_ZN4HelpC2EP7QWidget
FNDA:0,_ZN4HelpD0Ev
FNDA:0,_ZN4HelpD2Ev
FNF:4
FNH:1
DA:5,1
DA:6,1
DA:8,1
DA:9,1
DA:10,1
DA:12,1
DA:13,1
DA:15,0
DA:17,0
DA:18,0
DA:20,0
DA:22,0
DA:23,0
LF:13
LH:7
end_of_record
TN:
SF:/home/user/Desktop/VS projekat/2023_Analysis_timesweeper/06-timesweeper/timesweeper/Source/Level.cpp
FN:20,_ZN5Level9loadLevelEv
FN:36,_ZN5Level14parseLevelFileE7QString
FN:99,_ZN5Level9addObjectEcii
FN:179,_ZN5Level11addBuildingEN8Building9BuildingsEii
FNDA:0,_ZN5Level11addBuildingEN8Building9BuildingsEii
FNDA:18,_ZN5Level14parseLevelFileE7QString
FNDA:0,_ZN5Level9addObjectEcii
FNDA:18,_ZN5Level9loadLevelEv
FNF:4
FNH:2
DA:20,18
DA:23,18
DA:25,18
DA:26,18
DA:27,18
DA:29,36
DA:31,18
DA:33,36
DA:36,18
DA:39,18
DA:40,18
DA:42,18
DA:43,18
DA:45,0
DA:47,0
DA:48,0
DA:52,0
DA:55,0
DA:56,0
DA:57,0
DA:59,0
DA:61,0
DA:63,0
DA:65,0
DA:69,0
DA:74,0
DA:76,0
DA:80,0
DA:82,0
DA:83,0
DA:85,0
DA:87,0
DA:91,0
DA:96,0
DA:99,0
DA:108,0
DA:110,0
DA:111,0
DA:112,0
DA:113,0
DA:114,0
DA:115,0
DA:116,0
DA:117,0
DA:118,0
DA:119,0
DA:120,0
DA:121,0
DA:122,0
DA:123,0
DA:124,0
DA:125,0
DA:126,0
DA:127,0
DA:128,0
DA:129,0
DA:130,0
DA:131,0
DA:132,0
DA:133,0
DA:134,0
DA:135,0
DA:136,0
DA:137,0
DA:138,0
DA:139,0
DA:140,0
DA:141,0
DA:142,0
DA:143,0
DA:144,0
DA:145,0
DA:146,0
DA:147,0
DA:148,0
DA:149,0
DA:150,0
DA:151,0
DA:152,0
DA:153,0
DA:154,0
DA:155,0
DA:156,0
DA:157,0
DA:158,0
DA:159,0
DA:160,0
DA:161,0
DA:162,0
DA:163,0
DA:164,0
DA:165,0
DA:166,0
DA:167,0
DA:168,0
DA:169,0
DA:170,0
DA:171,0
DA:172,0
DA:173,0
DA:174,0
DA:175,0
DA:177,0
DA:179,0
DA:181,0
DA:182,0
DA:183,0
DA:184,0
LF:108
LH:13
end_of_record
TN:
SF:/home/user/Desktop/VS projekat/2023_Analysis_timesweeper/06-timesweeper/timesweeper/Source/Menu.cpp
FN:12,_ZN4MenuC2EP7QWidget
FN:29,_ZN4Menu18startButtonClickedEv
FN:39,_ZN4Menu17quitButtonClickedEv
FN:44,_ZN4Menu20optionsButtonClickedEv
FN:49,_ZN4Menu17helpButtonClickedEv
FNDA:1,_ZN4MenuC2EP7QWidget
FNDA:0,_ZN4Menu17helpButtonClickedEv
FNDA:0,_ZN4Menu17quitButtonClickedEv
FNDA:0,_ZN4Menu20optionsButtonClickedEv
FNDA:0,_ZN4Menu18startButtonClickedEv
FNF:5
FNH:1
DA:12,1
DA:13,1
DA:15,1
DA:16,1
DA:17,1
DA:18,1
DA:20,1
DA:21,1
DA:22,1
DA:23,1
DA:25,1
DA:26,1
DA:27,1
DA:29,0
DA:31,0
DA:33,0
DA:35,0
DA:36,0
DA:37,0
DA:39,0
DA:41,0
DA:44,0
DA:46,0
DA:47,0
DA:49,0
DA:51,0
DA:52,0
LF:27
LH:13
end_of_record
TN:
SF:/home/user/Desktop/VS projekat/2023_Analysis_timesweeper/06-timesweeper/timesweeper/Source/Options.cpp
FN:7,_ZN7OptionsC2EP7QWidget
FN:20,_ZN7OptionsD2Ev
FN:20,_ZN7OptionsD0Ev
FN:25,_ZN7Options17backButtonClickedEv
FN:30,_ZN7Options18volumeValueChangedEv
FN:35,_ZN7Options17soundStateChangedEv
FN:47,_ZN7Options23soundEffectStateChangedEv
FNDA:0,_ZN7OptionsD2Ev
FNDA:0,_ZN7Options17backButtonClickedEv
FNDA:0,_ZN7OptionsD0Ev
FNDA:0,_ZN7Options17soundStateChangedEv
FNDA:1,_ZN7OptionsC2EP7QWidget
FNDA:0,_ZN7Options18volumeValueChangedEv
FNDA:0,_ZN7Options23soundEffectStateChangedEv
FNF:7
FNH:1
DA:7,1
DA:8,1
DA:10,1
DA:11,1
DA:12,1
DA:14,1
DA:15,1
DA:16,1
DA:17,1
DA:18,1
DA:20,0
DA:22,0
DA:23,0
DA:25,0
DA:27,0
DA:28,0
DA:30,0
DA:32,0
DA:33,0
DA:35,0
DA:37,0
DA:39,0
DA:43,0
DA:45,0
DA:47,0
DA:49,0
DA:51,0
DA:55,0
DA:57,0
LF:29
LH:10
end_of_record
TN:
SF:/home/user/Desktop/VS projekat/2023_Analysis_timesweeper/06-timesweeper/timesweeper/Source/Pickup.cpp
FN:6,_ZN6PickupC2Ev
FNDA:0,_ZN6PickupC2Ev
FNF:1
FNH:0
DA:6,0
DA:8,0
DA:9,0
DA:10,0
LF:4
LH:0
end_of_record
TN:
SF:/home/user/Desktop/VS projekat/2023_Analysis_timesweeper/06-timesweeper/timesweeper/Source/PlayerCharacter.cpp
FN:16,_ZN15PlayerCharacterC2Ev
FN:31,_ZNK15PlayerCharacter9getGunArmEv
FN:33,_ZNK15PlayerCharacter9getHealthEv
FN:35,_ZNK15PlayerCharacter16getSoundEffectOnEv
FN:37,_ZN15PlayerCharacter16setSoundEffectOnEb
FN:41,_ZN15PlayerCharacter13keyPressEventEP9QKeyEvent
FN:111,_ZN15PlayerCharacter15keyReleaseEventEP9QKeyEvent
FN:133,_ZN15PlayerCharacter10aimAtPointE6QPoint
FN:167,_ZN15PlayerCharacter22updateShoudlerPositionEv
FN:179,_ZN15PlayerCharacter15shootProjectileEv
FN:210,_ZN15PlayerCharacter14increaseHealthEv
FN:218,_ZN15PlayerCharacter14decreaseHealthEv
FN:230,_ZN15PlayerCharacter7advanceEi
FN:241,_ZN15PlayerCharacter4jumpEv
FN:263,_ZN15PlayerCharacter4walkEv
FN:283,_ZN15PlayerCharacter15detectCollisionEv
FNDA:0,_ZN15PlayerCharacter10aimAtPointE6QPoint
FNDA:0,_ZNK15PlayerCharacter16getSoundEffectOnEv
FNDA:0,_ZN15PlayerCharacter16setSoundEffectOnEb
FNDA:0,_ZN15PlayerCharacter4jumpEv
FNDA:0,_ZN15PlayerCharacter15detectCollisionEv
FNDA:2,_ZN15PlayerCharacter14increaseHealthEv
FNDA:0,_ZN15PlayerCharacter4walkEv
FNDA:0,_ZN15PlayerCharacter15keyReleaseEventEP9QKeyEvent
FNDA:0,_ZN15PlayerCharacter7advanceEi
FNDA:4,_ZNK15PlayerCharacter9getGunArmEv
FNDA:1,_ZN15PlayerCharacter15shootProjectileEv
FNDA:22,_ZN15PlayerCharacterC2Ev
FNDA:0,_ZN15PlayerCharacter22updateShoudlerPositionEv
FNDA:11,_ZN15PlayerCharacter14decreaseHealthEv
FNDA:0,_ZN15PlayerCharacter13keyPressEventEP9QKeyEvent
FNDA:15,_ZNK15PlayerCharacter9getHealthEv
FNF:16
FNH:6
DA:16,22
DA:18,22
DA:20,22
DA:21,22
DA:22,22
DA:23,22
DA:25,22
DA:26,22
DA:27,22
DA:31,4
DA:33,15
DA:35,0
DA:37,0
DA:41,0
DA:43,0
DA:45,0
DA:48,0
DA:50,0
DA:51,0
DA:52,0
DA:53,0
DA:55,0
DA:57,0
DA:58,0
DA:59,0
DA:60,0
DA:62,0
DA:64,0
DA:66,0
DA:68,0
DA:70,0
DA:72,0
DA:73,0
DA:74,0
DA:75,0
DA:76,0
DA:77,0
DA:80,0
DA:82,0
DA:84,0
DA:86,0
DA:87,0
DA:89,0
DA:91,0
DA:93,0
DA:95,0
DA:96,0
DA:98,0
DA:100,0
DA:101,0
DA:102,0
DA:105,0
DA:107,0
DA:109,0
DA:111,0
DA:113,0
DA:115,0
DA:116,0
DA:117,0
DA:119,0
DA:122,0
DA:124,0
DA:125,0
DA:126,0
DA:128,0
DA:131,0
DA:133,0
DA:135,0
DA:137,0
DA:139,0
DA:140,0
DA:142,0
DA:144,0
DA:145,0
DA:146,0
DA:147,0
DA:149,0
DA:151,0
DA:155,0
DA:156,0
DA:157,0
DA:158,0
DA:160,0
DA:162,0
DA:165,0
DA:167,0
DA:169,0
DA:171,0
DA:173,0
DA:175,0
DA:177,0
DA:179,1
DA:181,1
DA:183,1
DA:185,1
DA:186,1
DA:187,1
DA:188,1
DA:190,1
DA:191,1
DA:192,1
DA:194,1
DA:196,1
DA:198,0
DA:199,0
DA:200,0
DA:202,1
DA:204,1
DA:205,1
DA:208,1
DA:210,2
DA:212,2
DA:214,1
DA:216,2
DA:218,11
DA:220,11
DA:222,10
DA:224,1
DA:226,1
DA:228,11
DA:230,0
DA:232,0
DA:233,0
DA:235,0
DA:237,0
DA:238,0
DA:239,0
DA:241,0
DA:243,0
DA:245,0
DA:247,0
DA:248,0
DA:251,0
DA:253,0
DA:254,0
DA:257,0
DA:258,0
DA:260,0
DA:261,0
DA:263,0
DA:266,0
DA:268,0
DA:270,0
DA:272,0
DA:275,0
DA:277,0
DA:278,0
DA:280,0
DA:281,0
DA:283,0
DA:285,0
DA:287,0
DA:289,0
DA:291,0
DA:293,0
DA:294,0
DA:296,0
DA:298,0
DA:299,0
DA:300,0
DA:302,0
DA:304,0
DA:305,0
DA:306,0
DA:307,0
DA:309,0
DA:311,0
DA:312,0
DA:314,0
DA:316,0
DA:318,0
DA:320,0
DA:321,0
DA:323,0
DA:325,0
DA:326,0
DA:328,0
DA:330,0
DA:331,0
DA:332,0
DA:334,0
DA:337,0
DA:338,0
DA:340,0
DA:343,0
DA:344,0
DA:345,0
DA:347,0
DA:348,0
DA:350,0
DA:352,0
DA:358,0
DA:360,0
LF:193
LH:37
end_of_record
TN:
SF:/home/user/Desktop/VS projekat/2023_Analysis_timesweeper/06-timesweeper/timesweeper/Source/Portal.cpp
FN:5,_ZN6PortalC2Ev
FNDA:0,_ZN6PortalC2Ev
FNF:1
FNH:0
DA:5,0
DA:7,0
DA:8,0
LF:3
LH:0
end_of_record
TN:
SF:/home/user/Desktop/VS projekat/2023_Analysis_timesweeper/06-timesweeper/timesweeper/Source/Projectile.cpp
FN:11,_ZN10ProjectileC2ENS_7ShooterE
FN:24,_ZNK10Projectile10getShooterEv
FN:26,_ZN10Projectile7advanceEi
FN:32,_ZN10Projectile4moveEi
FNDA:1,_ZN10ProjectileC2ENS_7ShooterE
FNDA:0,_ZNK10Projectile10getShooterEv
FNDA:0,_ZN10Projectile7advanceEi
FNDA:0,_ZN10Projectile4moveEi
FNF:4
FNH:1
DA:11,1
DA:12,1
DA:14,1
DA:16,1
DA:20,0
DA:22,1
DA:24,0
DA:26,0
DA:28,0
DA:29,0
DA:30,0
DA:32,0
DA:34,0
DA:35,0
DA:36,0
DA:38,0
DA:40,0
DA:41,0
DA:43,0
DA:45,0
DA:46,0
DA:48,0
DA:50,0
DA:51,0
DA:53,0
DA:54,0
DA:56,0
DA:57,0
DA:58,0
DA:61,0
DA:62,0
DA:65,0
DA:67,0
DA:68,0
DA:70,0
DA:71,0
DA:73,0
DA:76,0
DA:77,0
DA:81,0
DA:85,0
DA:86,0
DA:88,0
DA:89,0
LF:44
LH:5
end_of_record
TN:
SF:/home/user/Desktop/VS projekat/2023_Analysis_timesweeper/06-timesweeper/timesweeper/Source/Tile.cpp
FN:7,_ZN4TileC2Ec
FN:18,_ZNK4Tile7getTypeEv
FN:20,_ZN4Tile8drawTileEv
FN:212,_ZN4Tile7advanceEi
FN:221,_ZN4Tile4moveEv
FNDA:0,_ZN4Tile8drawTileEv
FNDA:0,_ZN4TileC2Ec
FNDA:0,_ZN4Tile4moveEv
FNDA:0,_ZNK4Tile7getTypeEv
FNDA:0,_ZN4Tile7advanceEi
FNF:5
FNH:0
DA:7,0
DA:8,0
DA:11,0
DA:12,0
DA:13,0
DA:15,0
DA:16,0
DA:18,0
DA:20,0
DA:22,0
DA:24,0
DA:26,0
DA:28,0
DA:30,0
DA:32,0
DA:34,0
DA:36,0
DA:38,0
DA:40,0
DA:42,0
DA:44,0
DA:46,0
DA:48,0
DA:50,0
DA:52,0
DA:54,0
DA:57,0
DA:59,0
DA:61,0
DA:63,0
DA:65,0
DA:67,0
DA:69,0
DA:71,0
DA:73,0
DA:75,0
DA:77,0
DA:79,0
DA:81,0
DA:83,0
DA:85,0
DA:87,0
DA:89,0
DA:91,0
DA:93,0
DA:95,0
DA:97,0
DA:99,0
DA:101,0
DA:103,0
DA:105,0
DA:107,0
DA:109,0
DA:111,0
DA:113,0
DA:116,0
DA:118,0
DA:120,0
DA:122,0
DA:124,0
DA:126,0
DA:128,0
DA:130,0
DA:132,0
DA:134,0
DA:136,0
DA:138,0
DA:140,0
DA:142,0
DA:144,0
DA:146,0
DA:148,0
DA:150,0
DA:152,0
DA:154,0
DA:156,0
DA:158,0
DA:160,0
DA:162,0
DA:164,0
DA:166,0
DA:168,0
DA:170,0
DA:172,0
DA:174,0
DA:176,0
DA:178,0
DA:180,0
DA:182,0
DA:184,0
DA:186,0
DA:188,0
DA:190,0
DA:192,0
DA:195,0
DA:197,0
DA:199,0
DA:201,0
DA:203,0
DA:205,0
DA:207,0
DA:210,0
DA:212,0
DA:214,0
DA:215,0
DA:217,0
DA:219,0
DA:221,0
DA:223,0
DA:225,0
DA:227,0
DA:229,0
DA:233,0
DA:235,0
DA:236,0
DA:238,0
DA:239,0
DA:243,0
DA:245,0
DA:247,0
DA:249,0
DA:253,0
DA:255,0
DA:256,0
DA:258,0
DA:259,0
DA:263,0
LF:127
LH:0
end_of_record
TN:
SF:/home/user/Desktop/VS projekat/2023_Analysis_timesweeper/TimesweeperUnitTests/tst_timesweeper.cpp
FN:72,_ZN11timesweeperC2Ev
FN:77,_ZN11timesweeperD0Ev
FN:77,_ZN11timesweeperD2Ev
FN:82,_ZN11timesweeper4initEv
FN:88,_ZN11timesweeper7cleanupEv
FN:93,_ZN11timesweeper31testIsLevelID2AfterGameCreationEv
FN:101,_ZN11timesweeper40testIsPlayerInitialisedAfterGameCreationEv
FN:107,_ZN11timesweeper30testIsSoundOnAfterGameCreationEv
FN:115,_ZN11timesweeper35testMediaPlayerSetAfterGameCreationEv
FN:121,_ZN11timesweeper33testMainTimerSetAfterGameCreationEv
FN:127,_ZN11timesweeper50testGameOverLabelCreatedAndHiddenAfterGameCreationEv
FN:134,_ZN11timesweeper47testPauseLabelCreatedAndHiddenAfterGameCreationEv
FN:141,_ZN11timesweeper36testIsLevelIDChangesAfterChangeLevelEv
FN:150,_ZN11timesweeper34testIsLevelChangedAfterChangeLevelEv
FN:160,_ZN11timesweeper36testPlayerPersistsThroughChangeLevelEv
FN:170,_ZN11timesweeper31testMainTimerStopedWhenGameOverEv
FN:178,_ZN11timesweeper27testMusicPausedWhenGameOverEv
FN:186,_ZN11timesweeper30testIsGameOverTrueWhenGameOverEv
FN:194,_ZN11timesweeper34testGameOverLabelShownWhenGameOverEv
FN:202,_ZN11timesweeper42testIsGunArmInitializedAfterPlayerCreationEv
FN:209,_ZN11timesweeper44testIsShoulderPositionSetAfterPlayerCreationEv
FN:216,_ZN11timesweeper32testIncreaseHealthWhileMaxHealthEv
FN:226,_ZN11timesweeper35testIncreaseHealthWhileNotMaxHealthEv
FN:237,_ZN11timesweeper35testDecreaseHealthWhileNotAt0HealthEv
FN:247,_ZN11timesweeper32testDecreaseHealthWhileAt0HealthEv
FN:262,_ZN11timesweeper39testShootProjectileCreatesNewProjectileEv
FN:275,main
FNDA:1,_ZN11timesweeper47testPauseLabelCreatedAndHiddenAfterGameCreationEv
FNDA:1,_ZN11timesweeper36testIsLevelIDChangesAfterChangeLevelEv
FNDA:21,_ZN11timesweeper4initEv
FNDA:1,_ZN11timesweeper34testIsLevelChangedAfterChangeLevelEv
FNDA:1,_ZN11timesweeper42testIsGunArmInitializedAfterPlayerCreationEv
FNDA:1,_ZN11timesweeper39testShootProjectileCreatesNewProjectileEv
FNDA:1,_ZN11timesweeper31testMainTimerStopedWhenGameOverEv
FNDA:1,_ZN11timesweeper40testIsPlayerInitialisedAfterGameCreationEv
FNDA:1,_ZN11timesweeper27testMusicPausedWhenGameOverEv
FNDA:1,_ZN11timesweeper35testMediaPlayerSetAfterGameCreationEv
FNDA:1,_ZN11timesweeper30testIsSoundOnAfterGameCreationEv
FNDA:1,main
FNDA:1,_ZN11timesweeper32testDecreaseHealthWhileAt0HealthEv
FNDA:1,_ZN11timesweeper30testIsGameOverTrueWhenGameOverEv
FNDA:1,_ZN11timesweeper33testMainTimerSetAfterGameCreationEv
FNDA:1,_ZN11timesweeperD2Ev
FNDA:1,_ZN11timesweeper32testIncreaseHealthWhileMaxHealthEv
FNDA:21,_ZN11timesweeper7cleanupEv
FNDA:1,_ZN11timesweeper34testGameOverLabelShownWhenGameOverEv
FNDA:1,_ZN11timesweeper31testIsLevelID2AfterGameCreationEv
FNDA:1,_ZN11timesweeper35testDecreaseHealthWhileNotAt0HealthEv
FNDA:1,_ZN11timesweeper36testPlayerPersistsThroughChangeLevelEv
FNDA:1,_ZN11timesweeper35testIncreaseHealthWhileNotMaxHealthEv
FNDA:0,_ZN11timesweeperD0Ev
FNDA:1,_ZN11timesweeper50testGameOverLabelCreatedAndHiddenAfterGameCreationEv
FNDA:1,_ZN11timesweeperC2Ev
FNDA:1,_ZN11timesweeper44testIsShoulderPositionSetAfterPlayerCreationEv
FNF:27
FNH:26
DA:72,1
DA:75,1
DA:77,1
DA:80,1
DA:82,21
DA:84,21
DA:85,21
DA:86,21
DA:88,21
DA:89,21
DA:90,21
DA:91,21
DA:93,1
DA:95,1
DA:96,1
DA:98,1
DA:101,1
DA:103,1
DA:104,1
DA:107,1
DA:109,1
DA:110,1
DA:112,1
DA:115,1
DA:117,1
DA:118,1
DA:121,1
DA:123,1
DA:124,1
DA:127,1
DA:129,1
DA:130,1
DA:131,1
DA:134,1
DA:136,1
DA:137,1
DA:138,1
DA:141,1
DA:143,1
DA:144,1
DA:145,1
DA:147,1
DA:150,1
DA:152,1
DA:153,1
DA:154,1
DA:155,1
DA:157,1
DA:160,1
DA:162,1
DA:163,1
DA:164,1
DA:165,1
DA:167,1
DA:170,1
DA:172,1
DA:173,1
DA:175,1
DA:178,1
DA:180,1
DA:181,1
DA:183,1
DA:186,1
DA:188,1
DA:189,1
DA:191,1
DA:194,1
DA:196,1
DA:197,1
DA:199,1
DA:202,1
DA:204,1
DA:206,1
DA:209,1
DA:211,1
DA:213,1
DA:216,1
DA:218,1
DA:219,1
DA:220,1
DA:221,1
DA:223,1
DA:226,1
DA:228,1
DA:229,1
DA:230,1
DA:231,1
DA:232,1
DA:234,1
DA:237,1
DA:239,1
DA:240,1
DA:241,1
DA:242,1
DA:244,1
DA:247,1
DA:249,1
DA:250,1
DA:253,9
DA:254,8
DA:257,1
DA:259,1
DA:262,1
DA:264,1
DA:266,1
DA:267,1
DA:268,1
DA:269,1
DA:270,1
DA:272,1
DA:275,1
LF:111
LH:111
end_of_record
TN:
SF:/usr/include/c++/9/atomic
FN:759,_ZNSt6atomicIiEC2Ei
FNDA:69,_ZNSt6atomicIiEC2Ei
FNF:1
FNH:1
DA:759,69
LF:1
LH:1
end_of_record
TN:
SF:/usr/include/c++/9/new
FN:173,_ZnwmPv
FN:179,_ZdlPvS_
FNDA:1,_ZnwmPv
FNDA:0,_ZdlPvS_
FNF:2
FNH:1
DA:173,1
DA:174,1
DA:179,0
LF:3
LH:2
end_of_record
TN:
SF:/usr/include/c++/9/typeinfo
FN:120,_ZNKSt9type_infoeqERKS_
FNDA:15,_ZNKSt9type_infoeqERKS_
FNF:1
FNH:1
DA:120,15
DA:122,15
DA:123,30
DA:124,30
LF:4
LH:4
end_of_record
