TN:
SF:/usr/include/x86_64-linux-gnu/qt5/QtCore/qstring.h
FN:699,_ZN7QStringC2EPKc
FNDA:22,_ZN7QStringC2EPKc
FN:1135,_ZN7QStringD2Ev
FNDA:22,_ZN7QStringD2Ev
DA:699,22
DA:700,22
DA:701,22
DA:1135,22
end_of_record
SF:/home/user/Desktop/VS projekat/2023_Analysis_timesweeper/06-timesweeper/timesweeper/Source/GunArm.cpp
FN:3,_ZN6GunArmC2Ev
FNDA:22,_ZN6GunArmC2Ev
FN:8,_ZN6GunArmD0Ev
FNDA:7,_ZN6GunArmD0Ev
FN:8,_ZN6GunArmD2Ev
FNDA:7,_ZN6GunArmD2Ev
DA:3,22
DA:5,22
DA:6,22
DA:8,7
DA:11,7
DA:8,7
DA:11,7
end_of_record
SF:/usr/include/x86_64-linux-gnu/qt5/QtCore/qarraydata.h
DA:239,22
DA:240,22
end_of_record
SF:/usr/include/x86_64-linux-gnu/qt5/QtCore/qrefcount.h
FN:65,_ZN9QtPrivate8RefCount5derefEv
FNDA:22,_ZN9QtPrivate8RefCount5derefEv
DA:65,22
DA:68,22
DA:71,22
DA:73,22
end_of_record
SF:/usr/include/x86_64-linux-gnu/qt5/QtCore/qflags.h
DA:120,22
end_of_record
SF:/usr/include/c++/9/bits/atomic_base.h
DA:327,22
DA:419,22
end_of_record
SF:/usr/include/x86_64-linux-gnu/qt5/QtCore/qatomic_cxx11.h
DA:271,22
end_of_record
TN:
SF:/home/user/Desktop/VS projekat/2023_Analysis_timesweeper/06-timesweeper/timesweeper/Source/Projectile.cpp
FN:11,_ZN10ProjectileC2ENS_7ShooterE
FNDA:1,_ZN10ProjectileC2ENS_7ShooterE
FN:24,_ZNK10Projectile10getShooterEv
FNDA:0,_ZNK10Projectile10getShooterEv
FN:26,_ZN10Projectile7advanceEi
FNDA:0,_ZN10Projectile7advanceEi
FN:32,_ZN10Projectile4moveEi
FNDA:0,_ZN10Projectile4moveEi
DA:11,1
DA:12,1
DA:14,1
DA:16,1
DA:20,0
DA:22,1
DA:24,0
DA:26,0
DA:28,0
DA:29,0
DA:30,0
DA:32,0
DA:34,0
DA:35,0
DA:36,0
DA:38,0
DA:40,0
DA:41,0
DA:43,0
DA:45,0
DA:46,0
DA:48,0
DA:50,0
DA:51,0
DA:53,0
DA:54,0
DA:56,0
DA:57,0
DA:58,0
DA:61,0
DA:62,0
DA:65,0
DA:67,0
DA:68,0
DA:70,0
DA:71,0
DA:73,0
DA:76,0
DA:77,0
DA:85,0
DA:86,0
DA:88,0
DA:89,0
end_of_record
SF:/usr/include/x86_64-linux-gnu/qt5/QtCore/qrefcount.h
FN:65,_ZN9QtPrivate8RefCount5derefEv
FNDA:1,_ZN9QtPrivate8RefCount5derefEv
DA:65,1
DA:68,1
DA:71,1
DA:73,1
end_of_record
SF:/usr/include/x86_64-linux-gnu/qt5/QtCore/qmath.h
DA:89,0
DA:95,0
DA:233,0
end_of_record
SF:/usr/include/x86_64-linux-gnu/qt5/QtCore/qlist.h
FN:172,_ZN5QListIP13QGraphicsItemE6detachEv
FNDA:0,_ZN5QListIP13QGraphicsItemE6detachEv
FN:786,_ZN5QListIP13QGraphicsItemE13detach_helperEi
FNDA:0,_ZN5QListIP13QGraphicsItemE13detach_helperEi
FN:827,_ZN5QListIP13QGraphicsItemED2Ev
FNDA:0,_ZN5QListIP13QGraphicsItemED2Ev
DA:116,0
DA:117,0
DA:172,0
DA:324,0
DA:328,0
DA:488,0
DA:489,0
DA:786,0
DA:788,0
DA:789,0
DA:791,0
DA:798,0
DA:800,0
DA:805,0
DA:806,0
DA:827,0
DA:829,0
DA:830,0
DA:831,0
DA:870,0
DA:871,0
end_of_record
SF:/usr/include/x86_64-linux-gnu/qt5/QtCore/qstring.h
FN:699,_ZN7QStringC2EPKc
FNDA:1,_ZN7QStringC2EPKc
FN:1135,_ZN7QStringD2Ev
FNDA:1,_ZN7QStringD2Ev
DA:699,1
DA:700,1
DA:701,1
DA:1135,1
end_of_record
SF:/home/user/Desktop/VS projekat/2023_Analysis_timesweeper/06-timesweeper/timesweeper/Headers/Projectile.h
end_of_record
SF:/usr/include/c++/9/typeinfo
DA:123,0
DA:124,0
end_of_record
SF:/usr/include/x86_64-linux-gnu/qt5/QtCore/qarraydata.h
DA:239,1
DA:240,1
end_of_record
SF:/usr/include/x86_64-linux-gnu/qt5/QtWidgets/qgraphicsitem.h
DA:214,0
DA:273,0
DA:275,0
DA:495,0
end_of_record
SF:/usr/include/x86_64-linux-gnu/qt5/QtCore/qflags.h
DA:120,1
end_of_record
SF:/usr/include/c++/9/bits/atomic_base.h
DA:327,1
DA:419,1
end_of_record
SF:/usr/include/x86_64-linux-gnu/qt5/QtCore/qatomic_cxx11.h
DA:271,1
end_of_record
SF:/usr/include/x86_64-linux-gnu/bits/string_fortified.h
DA:34,0
end_of_record
SF:/usr/include/x86_64-linux-gnu/qt5/QtCore/qpoint.h
DA:287,0
end_of_record
TN:
SF:/home/user/Desktop/VS projekat/2023_Analysis_timesweeper/06-timesweeper/timesweeper/Source/Options.cpp
FN:7,_ZN7OptionsC2EP7QWidget
FNDA:1,_ZN7OptionsC2EP7QWidget
FN:20,_ZN7OptionsD0Ev
FNDA:0,_ZN7OptionsD0Ev
FN:20,_ZN7OptionsD2Ev
FNDA:0,_ZN7OptionsD2Ev
FN:25,_ZN7Options17backButtonClickedEv
FNDA:0,_ZN7Options17backButtonClickedEv
FN:30,_ZN7Options18volumeValueChangedEv
FNDA:0,_ZN7Options18volumeValueChangedEv
FN:35,_ZN7Options17soundStateChangedEv
FNDA:0,_ZN7Options17soundStateChangedEv
FN:47,_ZN7Options23soundEffectStateChangedEv
FNDA:0,_ZN7Options23soundEffectStateChangedEv
DA:7,1
DA:8,1
DA:10,1
DA:11,1
DA:12,1
DA:14,1
DA:15,1
DA:16,1
DA:17,1
DA:18,1
DA:20,0
DA:23,0
DA:20,0
DA:22,0
DA:23,0
DA:25,0
DA:27,0
DA:28,0
DA:30,0
DA:32,0
DA:33,0
DA:35,0
DA:37,0
DA:39,0
DA:43,0
DA:45,0
DA:47,0
DA:49,0
DA:51,0
DA:55,0
DA:57,0
end_of_record
SF:/usr/include/x86_64-linux-gnu/qt5/QtCore/qsize.h
DA:119,1
end_of_record
SF:/usr/include/x86_64-linux-gnu/qt5/QtCore/qstring.h
FN:699,_ZN7QStringC2EPKc
FNDA:1,_ZN7QStringC2EPKc
FN:1135,_ZN7QStringD2Ev
FNDA:26,_ZN7QStringD2Ev
DA:572,16
DA:699,1
DA:700,1
DA:701,1
DA:942,1
DA:1134,2
DA:1135,26
end_of_record
SF:/usr/include/x86_64-linux-gnu/qt5/QtCore/qrefcount.h
FN:65,_ZN9QtPrivate8RefCount5derefEv
FNDA:26,_ZN9QtPrivate8RefCount5derefEv
DA:65,26
DA:68,26
DA:71,26
DA:73,23
end_of_record
SF:/usr/include/x86_64-linux-gnu/qt5/QtCore/qobject.h
FN:228,_ZN7QObject7connectIM9QCheckBoxFviEM7OptionsFvvEEEN11QMetaObject10ConnectionEPKN9QtPrivate15FunctionPointerIT_E6ObjectESB_PKNSA_IT0_E6ObjectESG_N2Qt14ConnectionTypeE
FNDA:2,_ZN7QObject7connectIM9QCheckBoxFviEM7OptionsFvvEEEN11QMetaObject10ConnectionEPKN9QtPrivate15FunctionPointerIT_E6ObjectESB_PKNSA_IT0_E6ObjectESG_N2Qt14ConnectionTypeE
FN:228,_ZN7QObject7connectIM15QAbstractSliderFviEM7OptionsFvvEEEN11QMetaObject10ConnectionEPKN9QtPrivate15FunctionPointerIT_E6ObjectESB_PKNSA_IT0_E6ObjectESG_N2Qt14ConnectionTypeE
FNDA:1,_ZN7QObject7connectIM15QAbstractSliderFviEM7OptionsFvvEEEN11QMetaObject10ConnectionEPKN9QtPrivate15FunctionPointerIT_E6ObjectESB_PKNSA_IT0_E6ObjectESG_N2Qt14ConnectionTypeE
FN:228,_ZN7QObject7connectIM15QAbstractButtonFvbEM7OptionsFvvEEEN11QMetaObject10ConnectionEPKN9QtPrivate15FunctionPointerIT_E6ObjectESB_PKNSA_IT0_E6ObjectESG_N2Qt14ConnectionTypeE
FNDA:1,_ZN7QObject7connectIM15QAbstractButtonFvbEM7OptionsFvvEEEN11QMetaObject10ConnectionEPKN9QtPrivate15FunctionPointerIT_E6ObjectESB_PKNSA_IT0_E6ObjectESG_N2Qt14ConnectionTypeE
DA:228,2
DA:247,2
DA:252,2
DA:254,2
DA:228,1
DA:247,1
DA:252,1
DA:254,1
DA:228,1
DA:247,1
DA:252,1
DA:254,1
end_of_record
SF:/home/user/Desktop/VS projekat/2023_Analysis_timesweeper/build-TimesweeperUnitTests-Desktop-Release/ui_Options.h
FN:34,_ZN10Ui_Options7setupUiEP7QWidget
FNDA:1,_ZN10Ui_Options7setupUiEP7QWidget
FN:118,_ZN10Ui_Options13retranslateUiEP7QWidget
FNDA:1,_ZN10Ui_Options13retranslateUiEP7QWidget
DA:34,1
DA:36,1
DA:37,1
DA:39,1
DA:45,1
DA:46,1
DA:47,1
DA:48,1
DA:51,1
DA:52,1
DA:53,1
DA:54,1
DA:55,1
DA:66,1
DA:67,1
DA:68,1
DA:69,1
DA:70,1
DA:71,1
DA:74,1
DA:75,1
DA:76,1
DA:77,1
DA:78,1
DA:79,1
DA:80,1
DA:81,1
DA:84,1
DA:85,1
DA:86,1
DA:87,1
DA:102,1
DA:103,1
DA:104,1
DA:105,1
DA:108,1
DA:109,1
DA:110,1
DA:111,1
DA:113,1
DA:115,1
DA:116,1
DA:118,1
DA:120,1
DA:121,1
DA:122,1
DA:123,1
DA:124,1
DA:125,1
DA:126,1
DA:127,1
DA:128,1
end_of_record
SF:/usr/include/x86_64-linux-gnu/qt5/QtCore/qobjectdefs_impl.h
FN:407,_ZN9QtPrivate11QSlotObjectIM7OptionsFvvENS_4ListIJEEEvE4implEiPNS_15QSlotObjectBaseEP7QObjectPPvPb
FNDA:0,_ZN9QtPrivate11QSlotObjectIM7OptionsFvvENS_4ListIJEEEvE4implEiPNS_15QSlotObjectBaseEP7QObjectPPvPb
DA:152,0
DA:387,4
DA:403,0
DA:407,0
DA:409,0
DA:410,0
DA:411,0
DA:413,0
DA:415,0
DA:416,0
DA:417,0
DA:418,0
DA:419,0
DA:421,0
DA:423,4
end_of_record
SF:/usr/include/x86_64-linux-gnu/qt5/QtWidgets/qwidget.h
DA:839,1
end_of_record
SF:/home/user/Desktop/VS projekat/2023_Analysis_timesweeper/06-timesweeper/timesweeper/Headers/Options.h
end_of_record
SF:/usr/include/x86_64-linux-gnu/qt5/QtCore/qarraydata.h
DA:239,0
DA:240,0
end_of_record
SF:/usr/include/x86_64-linux-gnu/qt5/QtCore/qflags.h
DA:121,5
end_of_record
SF:/usr/include/x86_64-linux-gnu/qt5/QtCore/qrect.h
DA:184,8
DA:185,8
end_of_record
SF:/usr/include/c++/9/bits/atomic_base.h
DA:279,4
DA:327,23
DA:419,26
end_of_record
SF:/usr/include/x86_64-linux-gnu/qt5/QtCore/qatomic_cxx11.h
DA:271,23
end_of_record
TN:
SF:/home/user/Desktop/VS projekat/2023_Analysis_timesweeper/build-TimesweeperUnitTests-Desktop-Release/moc_DialogueBox.cpp
FN:57,_ZN11DialogueBox18qt_static_metacallEP7QObjectN11QMetaObject4CallEiPPv
FNDA:0,_ZN11DialogueBox18qt_static_metacallEP7QObjectN11QMetaObject4CallEiPPv
FN:75,_ZNK11DialogueBox10metaObjectEv
FNDA:0,_ZNK11DialogueBox10metaObjectEv
FN:80,_ZN11DialogueBox11qt_metacastEPKc
FNDA:0,_ZN11DialogueBox11qt_metacastEPKc
FN:90,_ZN11DialogueBox11qt_metacallEN11QMetaObject4CallEiPPv
FNDA:0,_ZN11DialogueBox11qt_metacallEN11QMetaObject4CallEiPPv
DA:57,0
DA:63,0
DA:75,0
DA:77,0
DA:80,0
DA:82,0
DA:83,0
DA:85,0
DA:86,0
DA:87,0
DA:90,0
DA:92,0
DA:93,0
end_of_record
TN:
SF:/usr/include/c++/9/bits/atomic_base.h
DA:279,1
DA:327,10
DA:419,11
end_of_record
SF:/usr/include/x86_64-linux-gnu/qt5/QtCore/qrect.h
DA:184,2
DA:185,2
end_of_record
SF:/usr/include/x86_64-linux-gnu/qt5/QtCore/qatomic_cxx11.h
DA:271,10
end_of_record
SF:/usr/include/x86_64-linux-gnu/qt5/QtCore/qarraydata.h
DA:239,0
DA:240,0
end_of_record
SF:/usr/include/x86_64-linux-gnu/qt5/QtCore/qflags.h
DA:121,2
end_of_record
SF:/home/user/Desktop/VS projekat/2023_Analysis_timesweeper/06-timesweeper/timesweeper/Headers/Help.h
end_of_record
SF:/usr/include/x86_64-linux-gnu/qt5/QtWidgets/qwidget.h
DA:839,1
end_of_record
SF:/usr/include/x86_64-linux-gnu/qt5/QtCore/qobject.h
FN:228,_ZN7QObject7connectIM15QAbstractButtonFvbEM4HelpFvvEEEN11QMetaObject10ConnectionEPKN9QtPrivate15FunctionPointerIT_E6ObjectESB_PKNSA_IT0_E6ObjectESG_N2Qt14ConnectionTypeE
FNDA:1,_ZN7QObject7connectIM15QAbstractButtonFvbEM4HelpFvvEEEN11QMetaObject10ConnectionEPKN9QtPrivate15FunctionPointerIT_E6ObjectESB_PKNSA_IT0_E6ObjectESG_N2Qt14ConnectionTypeE
DA:228,1
DA:247,1
DA:252,1
DA:254,1
end_of_record
SF:/home/user/Desktop/VS projekat/2023_Analysis_timesweeper/06-timesweeper/timesweeper/Source/Help.cpp
FN:5,_ZN4HelpC2EP7QWidget
FNDA:1,_ZN4HelpC2EP7QWidget
FN:15,_ZN4HelpD0Ev
FNDA:0,_ZN4HelpD0Ev
FN:15,_ZN4HelpD2Ev
FNDA:0,_ZN4HelpD2Ev
FN:20,_ZN4Help17backButtonClickedEv
FNDA:0,_ZN4Help17backButtonClickedEv
DA:5,1
DA:6,1
DA:8,1
DA:9,1
DA:10,1
DA:12,1
DA:13,1
DA:15,0
DA:18,0
DA:15,0
DA:17,0
DA:18,0
DA:20,0
DA:22,0
DA:23,0
end_of_record
SF:/usr/include/x86_64-linux-gnu/qt5/QtCore/qobjectdefs_impl.h
FN:407,_ZN9QtPrivate11QSlotObjectIM4HelpFvvENS_4ListIJEEEvE4implEiPNS_15QSlotObjectBaseEP7QObjectPPvPb
FNDA:0,_ZN9QtPrivate11QSlotObjectIM4HelpFvvENS_4ListIJEEEvE4implEiPNS_15QSlotObjectBaseEP7QObjectPPvPb
DA:152,0
DA:387,1
DA:403,0
DA:407,0
DA:409,0
DA:410,0
DA:411,0
DA:413,0
DA:415,0
DA:416,0
DA:417,0
DA:418,0
DA:419,0
DA:421,0
DA:423,1
end_of_record
SF:/usr/include/x86_64-linux-gnu/qt5/QtCore/qrefcount.h
FN:65,_ZN9QtPrivate8RefCount5derefEv
FNDA:11,_ZN9QtPrivate8RefCount5derefEv
DA:65,11
DA:68,11
DA:71,11
DA:73,10
end_of_record
SF:/home/user/Desktop/VS projekat/2023_Analysis_timesweeper/build-TimesweeperUnitTests-Desktop-Release/ui_Help.h
FN:26,_ZN7Ui_Help7setupUiEP7QWidget
FNDA:1,_ZN7Ui_Help7setupUiEP7QWidget
FN:66,_ZN7Ui_Help13retranslateUiEP7QWidget
FNDA:1,_ZN7Ui_Help13retranslateUiEP7QWidget
DA:26,1
DA:28,1
DA:29,1
DA:31,1
DA:37,1
DA:38,1
DA:39,1
DA:40,1
DA:42,1
DA:43,1
DA:44,1
DA:45,1
DA:61,1
DA:63,1
DA:64,1
DA:66,1
DA:68,1
DA:69,1
DA:70,1
DA:71,1
end_of_record
SF:/usr/include/x86_64-linux-gnu/qt5/QtCore/qsize.h
DA:119,1
end_of_record
SF:/usr/include/x86_64-linux-gnu/qt5/QtCore/qstring.h
FN:699,_ZN7QStringC2EPKc
FNDA:1,_ZN7QStringC2EPKc
FN:1135,_ZN7QStringD2Ev
FNDA:11,_ZN7QStringD2Ev
DA:572,6
DA:699,1
DA:700,1
DA:701,1
DA:942,1
DA:1135,11
end_of_record
TN:
SF:/home/user/Desktop/VS projekat/2023_Analysis_timesweeper/06-timesweeper/timesweeper/Headers/Menu.h
end_of_record
SF:/home/user/Desktop/VS projekat/2023_Analysis_timesweeper/build-TimesweeperUnitTests-Desktop-Release/moc_Menu.cpp
FN:75,_ZN4Menu18qt_static_metacallEP7QObjectN11QMetaObject4CallEiPPv
FNDA:0,_ZN4Menu18qt_static_metacallEP7QObjectN11QMetaObject4CallEiPPv
FN:101,_ZNK4Menu10metaObjectEv
FNDA:53,_ZNK4Menu10metaObjectEv
FN:106,_ZN4Menu11qt_metacastEPKc
FNDA:21,_ZN4Menu11qt_metacastEPKc
FN:114,_ZN4Menu11qt_metacallEN11QMetaObject4CallEiPPv
FNDA:5,_ZN4Menu11qt_metacallEN11QMetaObject4CallEiPPv
DA:75,0
DA:77,0
DA:80,0
DA:81,0
DA:82,0
DA:83,0
DA:84,0
DA:89,0
DA:101,53
DA:103,53
DA:106,21
DA:108,21
DA:109,21
DA:111,21
DA:114,5
DA:116,5
DA:117,5
DA:119,0
DA:120,0
DA:121,0
DA:122,0
DA:123,0
DA:124,0
DA:125,0
DA:126,0
end_of_record
TN:
SF:/home/user/Desktop/VS projekat/2023_Analysis_timesweeper/build-TimesweeperUnitTests-Desktop-Release/moc_Tile.cpp
FN:57,_ZN4Tile18qt_static_metacallEP7QObjectN11QMetaObject4CallEiPPv
FNDA:0,_ZN4Tile18qt_static_metacallEP7QObjectN11QMetaObject4CallEiPPv
FN:75,_ZNK4Tile10metaObjectEv
FNDA:0,_ZNK4Tile10metaObjectEv
FN:80,_ZN4Tile11qt_metacastEPKc
FNDA:0,_ZN4Tile11qt_metacastEPKc
FN:90,_ZN4Tile11qt_metacallEN11QMetaObject4CallEiPPv
FNDA:0,_ZN4Tile11qt_metacallEN11QMetaObject4CallEiPPv
DA:57,0
DA:63,0
DA:75,0
DA:77,0
DA:80,0
DA:82,0
DA:83,0
DA:85,0
DA:86,0
DA:87,0
DA:90,0
DA:92,0
DA:93,0
end_of_record
SF:/home/user/Desktop/VS projekat/2023_Analysis_timesweeper/06-timesweeper/timesweeper/Headers/Tile.h
end_of_record
TN:
SF:/usr/include/x86_64-linux-gnu/qt5/QtCore/qpoint.h
DA:287,0
DA:367,0
end_of_record
SF:/home/user/Desktop/VS projekat/2023_Analysis_timesweeper/06-timesweeper/timesweeper/Headers/DialogueBox.h
end_of_record
SF:/usr/include/x86_64-linux-gnu/qt5/QtCore/qatomic_cxx11.h
DA:271,0
end_of_record
SF:/usr/include/c++/9/bits/atomic_base.h
DA:327,0
DA:419,0
end_of_record
SF:/home/user/Desktop/VS projekat/2023_Analysis_timesweeper/06-timesweeper/timesweeper/Source/DialogueBox.cpp
FN:6,_ZN11DialogueBoxC2ER5QPairIN15DialogueHandler7SpeakerE7QStringE
FNDA:0,_ZN11DialogueBoxC2ER5QPairIN15DialogueHandler7SpeakerE7QStringE
FN:29,_ZN11DialogueBoxD0Ev
FNDA:0,_ZN11DialogueBoxD0Ev
FN:29,_ZN11DialogueBoxD2Ev
FNDA:0,_ZN11DialogueBoxD2Ev
DA:6,0
DA:8,0
DA:9,0
DA:10,0
DA:12,0
DA:14,0
DA:15,0
DA:16,0
DA:20,0
DA:21,0
DA:22,0
DA:25,0
DA:26,0
DA:27,0
DA:29,0
DA:32,0
DA:29,0
DA:31,0
DA:32,0
end_of_record
SF:/usr/include/x86_64-linux-gnu/qt5/QtCore/qflags.h
DA:120,0
end_of_record
SF:/usr/include/x86_64-linux-gnu/qt5/QtCore/qarraydata.h
DA:239,0
DA:240,0
end_of_record
SF:/usr/include/x86_64-linux-gnu/qt5/QtWidgets/qgraphicsitem.h
DA:495,0
end_of_record
SF:/usr/include/x86_64-linux-gnu/qt5/QtCore/qstring.h
FN:699,_ZN7QStringC2EPKc
FNDA:0,_ZN7QStringC2EPKc
FN:1135,_ZN7QStringD2Ev
FNDA:0,_ZN7QStringD2Ev
DA:699,0
DA:700,0
DA:701,0
DA:1135,0
end_of_record
SF:/usr/include/x86_64-linux-gnu/qt5/QtCore/qrefcount.h
FN:65,_ZN9QtPrivate8RefCount5derefEv
FNDA:0,_ZN9QtPrivate8RefCount5derefEv
DA:65,0
DA:68,0
DA:71,0
DA:73,0
end_of_record
TN:
SF:/usr/include/x86_64-linux-gnu/qt5/QtCore/qrect.h
DA:644,0
DA:645,0
end_of_record
SF:/usr/include/x86_64-linux-gnu/qt5/QtWidgets/qgraphicsitem.h
DA:273,0
DA:275,0
DA:695,0
end_of_record
SF:/home/user/Desktop/VS projekat/2023_Analysis_timesweeper/06-timesweeper/timesweeper/Source/EnemyHealthBar.cpp
FN:5,_ZN14EnemyHealthBarC2Eii
FNDA:0,_ZN14EnemyHealthBarC2Eii
FN:16,_ZN14EnemyHealthBarD0Ev
FNDA:0,_ZN14EnemyHealthBarD0Ev
FN:16,_ZN14EnemyHealthBarD2Ev
FNDA:0,_ZN14EnemyHealthBarD2Ev
DA:5,0
DA:6,0
DA:8,0
DA:9,0
DA:10,0
DA:12,0
DA:13,0
DA:14,0
DA:16,0
DA:20,0
DA:16,0
DA:18,0
DA:19,0
DA:20,0
end_of_record
SF:/home/user/Desktop/VS projekat/2023_Analysis_timesweeper/06-timesweeper/timesweeper/Headers/EnemyHealthBar.h
end_of_record
TN:
SF:/home/user/Desktop/VS projekat/2023_Analysis_timesweeper/build-TimesweeperUnitTests-Desktop-Release/moc_EnemyCharacter.cpp
FN:57,_ZN14EnemyCharacter18qt_static_metacallEP7QObjectN11QMetaObject4CallEiPPv
FNDA:0,_ZN14EnemyCharacter18qt_static_metacallEP7QObjectN11QMetaObject4CallEiPPv
FN:75,_ZNK14EnemyCharacter10metaObjectEv
FNDA:0,_ZNK14EnemyCharacter10metaObjectEv
FN:80,_ZN14EnemyCharacter11qt_metacastEPKc
FNDA:0,_ZN14EnemyCharacter11qt_metacastEPKc
FN:88,_ZN14EnemyCharacter11qt_metacallEN11QMetaObject4CallEiPPv
FNDA:0,_ZN14EnemyCharacter11qt_metacallEN11QMetaObject4CallEiPPv
DA:57,0
DA:63,0
DA:75,0
DA:77,0
DA:80,0
DA:82,0
DA:83,0
DA:85,0
DA:88,0
DA:90,0
DA:91,0
end_of_record
TN:
SF:/home/user/Desktop/VS projekat/2023_Analysis_timesweeper/06-timesweeper/timesweeper/Source/DialogueTriggerBox.cpp
FN:3,_ZN18DialogueTriggerBoxC2Ev
FNDA:0,_ZN18DialogueTriggerBoxC2Ev
DA:3,0
DA:5,0
end_of_record
SF:/home/user/Desktop/VS projekat/2023_Analysis_timesweeper/06-timesweeper/timesweeper/Headers/DialogueTriggerBox.h
end_of_record
TN:
SF:/home/user/Desktop/VS projekat/2023_Analysis_timesweeper/06-timesweeper/timesweeper/Headers/Character.h
end_of_record
SF:/home/user/Desktop/VS projekat/2023_Analysis_timesweeper/06-timesweeper/timesweeper/Headers/EnemyBoss.h
end_of_record
SF:/home/user/Desktop/VS projekat/2023_Analysis_timesweeper/build-TimesweeperUnitTests-Desktop-Release/moc_EnemyBoss.cpp
FN:68,_ZN9EnemyBoss18qt_static_metacallEP7QObjectN11QMetaObject4CallEiPPv
FNDA:0,_ZN9EnemyBoss18qt_static_metacallEP7QObjectN11QMetaObject4CallEiPPv
FN:108,_ZNK9EnemyBoss10metaObjectEv
FNDA:0,_ZNK9EnemyBoss10metaObjectEv
FN:113,_ZN9EnemyBoss11qt_metacastEPKc
FNDA:0,_ZN9EnemyBoss11qt_metacastEPKc
FN:121,_ZN9EnemyBoss11qt_metacallEN11QMetaObject4CallEiPPv
FNDA:0,_ZN9EnemyBoss11qt_metacallEN11QMetaObject4CallEiPPv
FN:139,_ZN9EnemyBoss9alphaDiedEv
FNDA:0,_ZN9EnemyBoss9alphaDiedEv
FN:145,_ZN9EnemyBoss12alphaEscapedEv
FNDA:0,_ZN9EnemyBoss12alphaEscapedEv
DA:68,0
DA:70,0
DA:73,0
DA:74,0
DA:75,0
DA:78,0
DA:79,0
DA:82,0
DA:83,0
DA:84,0
DA:89,0
DA:90,0
DA:91,0
DA:108,0
DA:110,0
DA:113,0
DA:115,0
DA:116,0
DA:118,0
DA:121,0
DA:123,0
DA:124,0
DA:126,0
DA:127,0
DA:128,0
DA:129,0
DA:130,0
DA:131,0
DA:132,0
DA:133,0
DA:139,0
DA:141,0
DA:142,0
DA:145,0
DA:147,0
DA:148,0
end_of_record
TN:
SF:/home/user/Desktop/VS projekat/2023_Analysis_timesweeper/build-TimesweeperUnitTests-Desktop-Release/moc_Options.cpp
FN:76,_ZN7Options18qt_static_metacallEP7QObjectN11QMetaObject4CallEiPPv
FNDA:0,_ZN7Options18qt_static_metacallEP7QObjectN11QMetaObject4CallEiPPv
FN:102,_ZNK7Options10metaObjectEv
FNDA:78,_ZNK7Options10metaObjectEv
FN:107,_ZN7Options11qt_metacastEPKc
FNDA:33,_ZN7Options11qt_metacastEPKc
FN:115,_ZN7Options11qt_metacallEN11QMetaObject4CallEiPPv
FNDA:9,_ZN7Options11qt_metacallEN11QMetaObject4CallEiPPv
DA:76,0
DA:78,0
DA:81,0
DA:82,0
DA:83,0
DA:84,0
DA:85,0
DA:90,0
DA:102,78
DA:104,78
DA:107,33
DA:109,33
DA:110,33
DA:112,33
DA:115,9
DA:117,9
DA:118,9
DA:120,0
DA:121,0
DA:122,0
DA:123,0
DA:124,0
DA:125,0
DA:126,0
DA:127,0
end_of_record
TN:
SF:/home/user/Desktop/VS projekat/2023_Analysis_timesweeper/build-TimesweeperUnitTests-Desktop-Release/moc_PlayerCharacter.cpp
FN:75,_ZN15PlayerCharacter18qt_static_metacallEP7QObjectN11QMetaObject4CallEiPPv
FNDA:60,_ZN15PlayerCharacter18qt_static_metacallEP7QObjectN11QMetaObject4CallEiPPv
FN:131,_ZNK15PlayerCharacter10metaObjectEv
FNDA:63,_ZNK15PlayerCharacter10metaObjectEv
FN:136,_ZN15PlayerCharacter11qt_metacastEPKc
FNDA:0,_ZN15PlayerCharacter11qt_metacastEPKc
FN:144,_ZN15PlayerCharacter11qt_metacallEN11QMetaObject4CallEiPPv
FNDA:0,_ZN15PlayerCharacter11qt_metacallEN11QMetaObject4CallEiPPv
FN:162,_ZN15PlayerCharacter13enteredPortalEv
FNDA:0,_ZN15PlayerCharacter13enteredPortalEv
FN:168,_ZN15PlayerCharacter13startDialogueEv
FNDA:0,_ZN15PlayerCharacter13startDialogueEv
FN:174,_ZN15PlayerCharacter13healthChangedEv
FNDA:0,_ZN15PlayerCharacter13healthChangedEv
FN:180,_ZN15PlayerCharacter12playerIsDeadEv
FNDA:1,_ZN15PlayerCharacter12playerIsDeadEv
DA:75,60
DA:77,60
DA:80,0
DA:81,0
DA:82,0
DA:83,0
DA:84,0
DA:87,60
DA:88,60
DA:91,60
DA:92,15
DA:93,15
DA:98,45
DA:99,15
DA:100,15
DA:105,30
DA:106,15
DA:107,15
DA:112,15
DA:113,15
DA:114,15
DA:131,63
DA:133,63
DA:136,0
DA:138,0
DA:139,0
DA:141,0
DA:144,0
DA:146,0
DA:147,0
DA:149,0
DA:150,0
DA:151,0
DA:152,0
DA:153,0
DA:154,0
DA:155,0
DA:156,0
DA:162,0
DA:164,0
DA:165,0
DA:168,0
DA:170,0
DA:171,0
DA:174,0
DA:176,0
DA:177,0
DA:180,1
DA:182,1
DA:183,1
end_of_record
TN:
SF:/home/user/Desktop/VS projekat/2023_Analysis_timesweeper/06-timesweeper/timesweeper/Source/Character.cpp
FN:3,_ZN9CharacterC2Ev
FNDA:22,_ZN9CharacterC2Ev
DA:3,22
DA:5,22
end_of_record
TN:
SF:/usr/include/x86_64-linux-gnu/qt5/QtCore/qpoint.h
DA:287,0
end_of_record
SF:/usr/include/x86_64-linux-gnu/qt5/QtWidgets/qgraphicsscene.h
DA:135,0
end_of_record
SF:/usr/include/x86_64-linux-gnu/qt5/QtCore/qdebug.h
FN:153,_ZN6QDebuglsEPKc
FNDA:18,_ZN6QDebuglsEPKc
DA:125,18
DA:153,36
end_of_record
SF:/usr/include/c++/9/bits/atomic_base.h
DA:319,54
DA:327,198
DA:419,252
end_of_record
SF:/usr/include/x86_64-linux-gnu/qt5/QtCore/qrect.h
DA:644,0
DA:645,0
end_of_record
SF:/usr/include/x86_64-linux-gnu/qt5/QtCore/qatomic_cxx11.h
DA:271,198
end_of_record
SF:/usr/include/x86_64-linux-gnu/qt5/QtWidgets/qgraphicsitem.h
DA:495,0
DA:695,0
end_of_record
SF:/usr/include/x86_64-linux-gnu/qt5/QtCore/qarraydata.h
DA:61,0
DA:208,0
DA:239,162
DA:240,162
end_of_record
SF:/usr/include/x86_64-linux-gnu/qt5/QtCore/qflags.h
DA:120,0
end_of_record
SF:/usr/include/x86_64-linux-gnu/qt5/QtCore/qbasicatomic.h
DA:114,54
end_of_record
SF:/usr/include/x86_64-linux-gnu/qt5/QtCore/qchar.h
DA:86,0
DA:452,0
end_of_record
SF:/usr/include/x86_64-linux-gnu/qt5/QtCore/qstringlist.h
DA:99,0
end_of_record
SF:/home/user/Desktop/VS projekat/2023_Analysis_timesweeper/06-timesweeper/timesweeper/Source/Level.cpp
FN:20,_ZN5Level9loadLevelEv
FNDA:18,_ZN5Level9loadLevelEv
FN:36,_ZN5Level14parseLevelFileE7QString
FNDA:18,_ZN5Level14parseLevelFileE7QString
FN:99,_ZN5Level9addObjectEcii
FNDA:0,_ZN5Level9addObjectEcii
FN:179,_ZN5Level11addBuildingEN8Building9BuildingsEii
FNDA:0,_ZN5Level11addBuildingEN8Building9BuildingsEii
DA:20,18
DA:23,36
DA:25,18
DA:26,18
DA:27,18
DA:29,36
DA:31,18
DA:33,18
DA:36,18
DA:39,18
DA:40,18
DA:42,18
DA:43,18
DA:45,0
DA:47,0
DA:48,0
DA:52,0
DA:55,0
DA:56,0
DA:57,0
DA:59,0
DA:61,0
DA:63,0
DA:65,0
DA:69,0
DA:74,0
DA:76,0
DA:80,0
DA:82,0
DA:83,0
DA:85,0
DA:87,0
DA:91,0
DA:96,0
DA:99,0
DA:108,0
DA:112,0
DA:113,0
DA:114,0
DA:115,0
DA:116,0
DA:117,0
DA:118,0
DA:119,0
DA:120,0
DA:121,0
DA:122,0
DA:123,0
DA:124,0
DA:125,0
DA:126,0
DA:127,0
DA:128,0
DA:129,0
DA:130,0
DA:131,0
DA:132,0
DA:133,0
DA:134,0
DA:135,0
DA:136,0
DA:137,0
DA:138,0
DA:139,0
DA:140,0
DA:141,0
DA:142,0
DA:143,0
DA:144,0
DA:145,0
DA:146,0
DA:147,0
DA:148,0
DA:149,0
DA:150,0
DA:151,0
DA:152,0
DA:153,0
DA:154,0
DA:155,0
DA:156,0
DA:157,0
DA:158,0
DA:159,0
DA:160,0
DA:161,0
DA:162,0
DA:163,0
DA:164,0
DA:165,0
DA:166,0
DA:167,0
DA:168,0
DA:169,0
DA:170,0
DA:171,0
DA:172,0
DA:173,0
DA:174,0
DA:175,0
DA:177,0
DA:179,0
DA:181,0
DA:182,0
DA:183,0
DA:184,0
end_of_record
SF:/usr/include/x86_64-linux-gnu/qt5/QtCore/qstring.h
FN:570,_ZN7QString8fromUtf8EPKci
FNDA:90,_ZN7QString8fromUtf8EPKci
FN:699,_ZN7QStringC2EPKc
FNDA:0,_ZN7QStringC2EPKc
FN:1135,_ZN7QStringD2Ev
FNDA:198,_ZN7QStringD2Ev
FN:1358,_ZplPKcRK7QString
FNDA:36,_ZplPKcRK7QString
DA:483,36
DA:570,90
DA:572,90
DA:699,0
DA:700,0
DA:701,0
DA:957,18
DA:958,18
DA:1051,0
DA:1134,18
DA:1135,198
DA:1358,36
DA:1359,72
end_of_record
SF:/usr/include/x86_64-linux-gnu/qt5/QtCore/qlist.h
FN:172,_ZN5QListI7QStringE6detachEv
FNDA:0,_ZN5QListI7QStringE6detachEv
FN:786,_ZN5QListI7QStringE13detach_helperEi
FNDA:0,_ZN5QListI7QStringE13detach_helperEi
FN:827,_ZN5QListI7QStringED2Ev
FNDA:0,_ZN5QListI7QStringED2Ev
DA:115,0
DA:116,0
DA:117,0
DA:172,0
DA:477,0
DA:479,0
DA:480,0
DA:553,0
DA:786,0
DA:788,0
DA:789,0
DA:791,0
DA:798,0
DA:799,0
DA:800,0
DA:805,0
DA:806,0
DA:827,0
DA:829,0
DA:830,0
DA:831,0
end_of_record
SF:/usr/include/x86_64-linux-gnu/qt5/QtCore/qlogging.h
DA:69,18
end_of_record
SF:/usr/include/x86_64-linux-gnu/qt5/QtCore/qrefcount.h
FN:54,_ZN9QtPrivate8RefCount3refEv
FNDA:54,_ZN9QtPrivate8RefCount3refEv
FN:65,_ZN9QtPrivate8RefCount5derefEv
FNDA:198,_ZN9QtPrivate8RefCount5derefEv
DA:54,54
DA:57,54
DA:60,54
DA:65,198
DA:68,198
DA:71,198
DA:73,198
end_of_record
TN:
SF:/home/user/Desktop/VS projekat/2023_Analysis_timesweeper/06-timesweeper/timesweeper/Headers/Projectile.h
end_of_record
SF:/home/user/Desktop/VS projekat/2023_Analysis_timesweeper/build-TimesweeperUnitTests-Desktop-Release/moc_Projectile.cpp
FN:57,_ZN10Projectile18qt_static_metacallEP7QObjectN11QMetaObject4CallEiPPv
FNDA:0,_ZN10Projectile18qt_static_metacallEP7QObjectN11QMetaObject4CallEiPPv
FN:75,_ZNK10Projectile10metaObjectEv
FNDA:0,_ZNK10Projectile10metaObjectEv
FN:80,_ZN10Projectile11qt_metacastEPKc
FNDA:0,_ZN10Projectile11qt_metacastEPKc
FN:90,_ZN10Projectile11qt_metacallEN11QMetaObject4CallEiPPv
FNDA:0,_ZN10Projectile11qt_metacallEN11QMetaObject4CallEiPPv
DA:57,0
DA:63,0
DA:75,0
DA:77,0
DA:80,0
DA:82,0
DA:83,0
DA:85,0
DA:86,0
DA:87,0
DA:90,0
DA:92,0
DA:93,0
end_of_record
TN:
SF:/home/user/Desktop/VS projekat/2023_Analysis_timesweeper/build-TimesweeperUnitTests-Desktop-Release/moc_Character.cpp
FN:57,_ZN9Character18qt_static_metacallEP7QObjectN11QMetaObject4CallEiPPv
FNDA:0,_ZN9Character18qt_static_metacallEP7QObjectN11QMetaObject4CallEiPPv
FN:75,_ZNK9Character10metaObjectEv
FNDA:0,_ZNK9Character10metaObjectEv
FN:80,_ZN9Character11qt_metacastEPKc
FNDA:0,_ZN9Character11qt_metacastEPKc
FN:90,_ZN9Character11qt_metacallEN11QMetaObject4CallEiPPv
FNDA:0,_ZN9Character11qt_metacallEN11QMetaObject4CallEiPPv
DA:57,0
DA:63,0
DA:75,0
DA:77,0
DA:80,0
DA:82,0
DA:83,0
DA:85,0
DA:86,0
DA:87,0
DA:90,0
DA:92,0
DA:93,0
end_of_record
TN:
SF:/home/user/Desktop/VS projekat/2023_Analysis_timesweeper/build-TimesweeperUnitTests-Desktop-Release/moc_EnemyHealthBar.cpp
FN:57,_ZN14EnemyHealthBar18qt_static_metacallEP7QObjectN11QMetaObject4CallEiPPv
FNDA:0,_ZN14EnemyHealthBar18qt_static_metacallEP7QObjectN11QMetaObject4CallEiPPv
FN:75,_ZNK14EnemyHealthBar10metaObjectEv
FNDA:0,_ZNK14EnemyHealthBar10metaObjectEv
FN:80,_ZN14EnemyHealthBar11qt_metacastEPKc
FNDA:0,_ZN14EnemyHealthBar11qt_metacastEPKc
FN:90,_ZN14EnemyHealthBar11qt_metacallEN11QMetaObject4CallEiPPv
FNDA:0,_ZN14EnemyHealthBar11qt_metacallEN11QMetaObject4CallEiPPv
DA:57,0
DA:63,0
DA:75,0
DA:77,0
DA:80,0
DA:82,0
DA:83,0
DA:85,0
DA:86,0
DA:87,0
DA:90,0
DA:92,0
DA:93,0
end_of_record
TN:
SF:/usr/include/x86_64-linux-gnu/qt5/QtCore/qobject.h
FN:228,_ZN7QObject7connectIM9EnemyBossFvvEM4GameFvvEEEN11QMetaObject10ConnectionEPKN9QtPrivate15FunctionPointerIT_E6ObjectESB_PKNSA_IT0_E6ObjectESG_N2Qt14ConnectionTypeE
FNDA:0,_ZN7QObject7connectIM9EnemyBossFvvEM4GameFvvEEEN11QMetaObject10ConnectionEPKN9QtPrivate15FunctionPointerIT_E6ObjectESB_PKNSA_IT0_E6ObjectESG_N2Qt14ConnectionTypeE
DA:228,0
DA:252,0
DA:254,0
end_of_record
SF:/usr/include/x86_64-linux-gnu/qt5/QtCore/qobjectdefs_impl.h
FN:407,_ZN9QtPrivate11QSlotObjectIM4GameFvvENS_4ListIJEEEvE4implEiPNS_15QSlotObjectBaseEP7QObjectPPvPb
FNDA:60,_ZN9QtPrivate11QSlotObjectIM4GameFvvENS_4ListIJEEEvE4implEiPNS_15QSlotObjectBaseEP7QObjectPPvPb
DA:152,0
DA:387,0
DA:403,60
DA:407,60
DA:409,60
DA:410,60
DA:411,60
DA:413,0
DA:415,0
DA:416,0
DA:417,0
DA:418,0
DA:419,60
DA:421,60
DA:423,0
end_of_record
SF:/home/user/Desktop/VS projekat/2023_Analysis_timesweeper/06-timesweeper/timesweeper/Source/EnemyBoss.cpp
FN:7,_ZN9EnemyBossC2Ev
FNDA:0,_ZN9EnemyBossC2Ev
FN:15,_ZN9EnemyBoss8setLivesEi
FNDA:0,_ZN9EnemyBoss8setLivesEi
FN:17,_ZNK9EnemyBoss8getLivesEv
FNDA:0,_ZNK9EnemyBoss8getLivesEv
FN:19,_ZN9EnemyBoss13drawHealthBarEv
FNDA:0,_ZN9EnemyBoss13drawHealthBarEv
FN:43,_ZN9EnemyBoss7advanceEi
FNDA:0,_ZN9EnemyBoss7advanceEi
FN:49,_ZN9EnemyBoss4moveEv
FNDA:0,_ZN9EnemyBoss4moveEv
FN:65,_ZN9EnemyBoss14decreaseHealthEv
FNDA:0,_ZN9EnemyBoss14decreaseHealthEv
DA:7,0
DA:9,0
DA:10,0
DA:11,0
DA:12,0
DA:13,0
DA:15,0
DA:17,0
DA:19,0
DA:21,0
DA:22,0
DA:23,0
DA:26,0
DA:28,0
DA:29,0
DA:30,0
DA:31,0
DA:32,0
DA:33,0
DA:34,0
DA:37,0
DA:39,0
DA:40,0
DA:41,0
DA:43,0
DA:45,0
DA:46,0
DA:47,0
DA:49,0
DA:52,0
DA:54,0
DA:55,0
DA:59,0
DA:61,0
DA:63,0
DA:65,0
DA:67,0
DA:68,0
DA:70,0
DA:72,0
DA:74,0
DA:76,0
DA:79,0
DA:81,0
DA:83,0
DA:84,0
DA:86,0
end_of_record
SF:/home/user/Desktop/VS projekat/2023_Analysis_timesweeper/06-timesweeper/timesweeper/Headers/EnemyBoss.h
end_of_record
SF:/usr/include/x86_64-linux-gnu/qt5/QtCore/qrefcount.h
FN:65,_ZN9QtPrivate8RefCount5derefEv
FNDA:0,_ZN9QtPrivate8RefCount5derefEv
DA:65,0
DA:68,0
DA:71,0
DA:73,0
end_of_record
SF:/usr/include/x86_64-linux-gnu/qt5/QtCore/qstring.h
FN:699,_ZN7QStringC2EPKc
FNDA:0,_ZN7QStringC2EPKc
FN:1135,_ZN7QStringD2Ev
FNDA:0,_ZN7QStringD2Ev
DA:699,0
DA:700,0
DA:701,0
DA:1135,0
end_of_record
SF:/home/user/Desktop/VS projekat/2023_Analysis_timesweeper/06-timesweeper/timesweeper/Headers/Character.h
DA:6,0
end_of_record
SF:/usr/include/x86_64-linux-gnu/qt5/QtCore/qrect.h
DA:184,0
DA:185,0
DA:266,0
DA:269,0
end_of_record
SF:/usr/include/c++/9/bits/atomic_base.h
DA:279,0
DA:327,0
DA:419,0
end_of_record
SF:/usr/include/x86_64-linux-gnu/qt5/QtCore/qatomic_cxx11.h
DA:271,0
end_of_record
SF:/usr/include/x86_64-linux-gnu/qt5/QtCore/qarraydata.h
DA:239,0
DA:240,0
end_of_record
SF:/usr/include/x86_64-linux-gnu/qt5/QtWidgets/qgraphicsitem.h
DA:273,0
DA:275,0
DA:495,0
end_of_record
SF:/usr/include/x86_64-linux-gnu/qt5/QtCore/qflags.h
DA:120,0
DA:121,0
end_of_record
SF:/usr/include/x86_64-linux-gnu/qt5/QtCore/qpoint.h
DA:287,0
end_of_record
SF:/usr/include/x86_64-linux-gnu/qt5/QtWidgets/qwidget.h
DA:842,0
DA:854,0
DA:857,0
end_of_record
TN:
SF:/usr/include/x86_64-linux-gnu/qt5/QtCore/qrefcount.h
FN:65,_ZN9QtPrivate8RefCount5derefEv
FNDA:0,_ZN9QtPrivate8RefCount5derefEv
DA:65,0
DA:68,0
DA:71,0
DA:73,0
end_of_record
SF:/home/user/Desktop/VS projekat/2023_Analysis_timesweeper/06-timesweeper/timesweeper/Headers/EnemyCharacter.h
end_of_record
SF:/usr/include/c++/9/bits/std_abs.h
DA:72,0
end_of_record
SF:/home/user/Desktop/VS projekat/2023_Analysis_timesweeper/06-timesweeper/timesweeper/Source/EnemyCharacter.cpp
FN:10,_ZN14EnemyCharacterC2Ev
FNDA:0,_ZN14EnemyCharacterC2Ev
FN:20,_ZN14EnemyCharacterD0Ev
FNDA:0,_ZN14EnemyCharacterD0Ev
FN:20,_ZN14EnemyCharacterD2Ev
FNDA:0,_ZN14EnemyCharacterD2Ev
FN:25,_ZNK14EnemyCharacter8getLivesEv
FNDA:0,_ZNK14EnemyCharacter8getLivesEv
FN:27,_ZN14EnemyCharacter8setLivesEi
FNDA:0,_ZN14EnemyCharacter8setLivesEi
FN:29,_ZNK14EnemyCharacter11getHealtBarEv
FNDA:0,_ZNK14EnemyCharacter11getHealtBarEv
FN:31,_ZN14EnemyCharacter7advanceEi
FNDA:0,_ZN14EnemyCharacter7advanceEi
FN:41,_ZN14EnemyCharacter4moveEv
FNDA:0,_ZN14EnemyCharacter4moveEv
FN:87,_ZN14EnemyCharacter5shootEv
FNDA:0,_ZN14EnemyCharacter5shootEv
FN:128,_ZN14EnemyCharacter14decreaseHealthEv
FNDA:0,_ZN14EnemyCharacter14decreaseHealthEv
DA:10,0
DA:12,0
DA:15,0
DA:16,0
DA:17,0
DA:18,0
DA:20,0
DA:23,0
DA:20,0
DA:22,0
DA:23,0
DA:25,0
DA:27,0
DA:29,0
DA:31,0
DA:33,0
DA:34,0
DA:35,0
DA:36,0
DA:38,0
DA:41,0
DA:43,0
DA:45,0
DA:47,0
DA:49,0
DA:51,0
DA:53,0
DA:56,0
DA:57,0
DA:59,0
DA:60,0
DA:64,0
DA:66,0
DA:68,0
DA:70,0
DA:72,0
DA:74,0
DA:77,0
DA:78,0
DA:80,0
DA:81,0
DA:85,0
DA:87,0
DA:89,0
DA:90,0
DA:92,0
DA:94,0
DA:95,0
DA:97,0
DA:99,0
DA:100,0
DA:101,0
DA:102,0
DA:103,0
DA:108,0
DA:109,0
DA:111,0
DA:113,0
DA:114,0
DA:115,0
DA:116,0
DA:122,0
DA:125,0
DA:126,0
DA:128,0
DA:130,0
DA:132,0
DA:133,0
DA:134,0
DA:136,0
DA:138,0
DA:139,0
DA:140,0
DA:144,0
DA:146,0
end_of_record
SF:/usr/include/x86_64-linux-gnu/qt5/QtCore/qstring.h
FN:699,_ZN7QStringC2EPKc
FNDA:0,_ZN7QStringC2EPKc
FN:1135,_ZN7QStringD2Ev
FNDA:0,_ZN7QStringD2Ev
DA:699,0
DA:700,0
DA:701,0
DA:1135,0
end_of_record
SF:/usr/include/x86_64-linux-gnu/qt5/QtCore/qarraydata.h
DA:239,0
DA:240,0
end_of_record
SF:/usr/include/x86_64-linux-gnu/qt5/QtWidgets/qgraphicsitem.h
DA:273,0
DA:275,0
DA:495,0
DA:695,0
end_of_record
SF:/usr/include/x86_64-linux-gnu/qt5/QtCore/qflags.h
DA:120,0
end_of_record
SF:/home/user/Desktop/VS projekat/2023_Analysis_timesweeper/06-timesweeper/timesweeper/Headers/Character.h
DA:6,0
end_of_record
SF:/usr/include/c++/9/bits/atomic_base.h
DA:327,0
DA:419,0
end_of_record
SF:/usr/include/x86_64-linux-gnu/qt5/QtCore/qrect.h
DA:644,0
DA:645,0
end_of_record
SF:/usr/include/x86_64-linux-gnu/qt5/QtCore/qatomic_cxx11.h
DA:271,0
end_of_record
SF:/usr/include/x86_64-linux-gnu/qt5/QtCore/qpoint.h
DA:287,0
end_of_record
SF:/usr/include/c++/9/iostream
end_of_record
TN:
SF:/home/user/Desktop/VS projekat/2023_Analysis_timesweeper/build-TimesweeperUnitTests-Desktop-Release/moc_Help.cpp
FN:65,_ZN4Help18qt_static_metacallEP7QObjectN11QMetaObject4CallEiPPv
FNDA:0,_ZN4Help18qt_static_metacallEP7QObjectN11QMetaObject4CallEiPPv
FN:88,_ZNK4Help10metaObjectEv
FNDA:39,_ZNK4Help10metaObjectEv
FN:93,_ZN4Help11qt_metacastEPKc
FNDA:15,_ZN4Help11qt_metacastEPKc
FN:101,_ZN4Help11qt_metacallEN11QMetaObject4CallEiPPv
FNDA:3,_ZN4Help11qt_metacallEN11QMetaObject4CallEiPPv
DA:65,0
DA:67,0
DA:70,0
DA:71,0
DA:76,0
DA:88,39
DA:90,39
DA:93,15
DA:95,15
DA:96,15
DA:98,15
DA:101,3
DA:103,3
DA:104,3
DA:106,0
DA:107,0
DA:108,0
DA:109,0
DA:110,0
DA:111,0
DA:112,0
DA:113,0
end_of_record
TN:
SF:/usr/include/x86_64-linux-gnu/qt5/QtCore/qstring.h
FN:699,_ZN7QStringC2EPKc
FNDA:0,_ZN7QStringC2EPKc
FN:1135,_ZN7QStringD2Ev
FNDA:0,_ZN7QStringD2Ev
DA:699,0
DA:700,0
DA:701,0
DA:1135,0
end_of_record
SF:/home/user/Desktop/VS projekat/2023_Analysis_timesweeper/06-timesweeper/timesweeper/Source/Tile.cpp
FN:7,_ZN4TileC2Ec
FNDA:0,_ZN4TileC2Ec
FN:18,_ZNK4Tile7getTypeEv
FNDA:0,_ZNK4Tile7getTypeEv
FN:20,_ZN4Tile8drawTileEv
FNDA:0,_ZN4Tile8drawTileEv
FN:212,_ZN4Tile7advanceEi
FNDA:0,_ZN4Tile7advanceEi
FN:221,_ZN4Tile4moveEv
FNDA:0,_ZN4Tile4moveEv
DA:7,0
DA:8,0
DA:11,0
DA:12,0
DA:13,0
DA:15,0
DA:16,0
DA:18,0
DA:20,0
DA:22,0
DA:24,0
DA:26,0
DA:28,0
DA:30,0
DA:32,0
DA:34,0
DA:36,0
DA:38,0
DA:40,0
DA:42,0
DA:44,0
DA:46,0
DA:48,0
DA:50,0
DA:52,0
DA:54,0
DA:57,0
DA:59,0
DA:61,0
DA:63,0
DA:65,0
DA:67,0
DA:69,0
DA:71,0
DA:73,0
DA:75,0
DA:77,0
DA:79,0
DA:81,0
DA:83,0
DA:85,0
DA:87,0
DA:89,0
DA:91,0
DA:93,0
DA:95,0
DA:97,0
DA:99,0
DA:101,0
DA:103,0
DA:105,0
DA:107,0
DA:109,0
DA:111,0
DA:113,0
DA:116,0
DA:118,0
DA:120,0
DA:122,0
DA:124,0
DA:126,0
DA:128,0
DA:130,0
DA:132,0
DA:134,0
DA:136,0
DA:138,0
DA:140,0
DA:142,0
DA:144,0
DA:146,0
DA:148,0
DA:150,0
DA:152,0
DA:154,0
DA:156,0
DA:158,0
DA:160,0
DA:162,0
DA:164,0
DA:166,0
DA:168,0
DA:170,0
DA:172,0
DA:174,0
DA:176,0
DA:178,0
DA:180,0
DA:182,0
DA:184,0
DA:186,0
DA:188,0
DA:190,0
DA:192,0
DA:195,0
DA:197,0
DA:199,0
DA:201,0
DA:203,0
DA:205,0
DA:207,0
DA:210,0
DA:212,0
DA:214,0
DA:215,0
DA:217,0
DA:219,0
DA:221,0
DA:223,0
DA:225,0
DA:227,0
DA:229,0
DA:233,0
DA:235,0
DA:236,0
DA:238,0
DA:239,0
DA:243,0
DA:245,0
DA:247,0
DA:249,0
DA:253,0
DA:255,0
DA:256,0
DA:258,0
DA:259,0
DA:263,0
end_of_record
SF:/home/user/Desktop/VS projekat/2023_Analysis_timesweeper/06-timesweeper/timesweeper/Headers/Tile.h
end_of_record
SF:/usr/include/x86_64-linux-gnu/qt5/QtCore/qrefcount.h
FN:65,_ZN9QtPrivate8RefCount5derefEv
FNDA:0,_ZN9QtPrivate8RefCount5derefEv
DA:65,0
DA:68,0
DA:71,0
DA:73,0
end_of_record
SF:/usr/include/x86_64-linux-gnu/qt5/QtCore/qpoint.h
DA:287,0
end_of_record
SF:/usr/include/x86_64-linux-gnu/qt5/QtCore/qatomic_cxx11.h
DA:271,0
end_of_record
SF:/usr/include/c++/9/bits/atomic_base.h
DA:327,0
DA:419,0
end_of_record
SF:/usr/include/x86_64-linux-gnu/qt5/QtCore/qflags.h
DA:120,0
end_of_record
SF:/usr/include/x86_64-linux-gnu/qt5/QtCore/qarraydata.h
DA:239,0
DA:240,0
end_of_record
SF:/usr/include/x86_64-linux-gnu/qt5/QtWidgets/qgraphicsitem.h
DA:273,0
DA:275,0
DA:495,0
end_of_record
TN:
SF:/usr/include/x86_64-linux-gnu/qt5/QtCore/qarraydata.h
DA:239,0
DA:240,0
end_of_record
SF:/home/user/Desktop/VS projekat/2023_Analysis_timesweeper/06-timesweeper/timesweeper/Headers/Building.h
end_of_record
SF:/usr/include/x86_64-linux-gnu/qt5/QtCore/qflags.h
DA:120,0
end_of_record
SF:/usr/include/c++/9/bits/atomic_base.h
DA:327,0
DA:419,0
end_of_record
SF:/usr/include/x86_64-linux-gnu/qt5/QtCore/qatomic_cxx11.h
DA:271,0
end_of_record
SF:/home/user/Desktop/VS projekat/2023_Analysis_timesweeper/06-timesweeper/timesweeper/Source/Building.cpp
FN:3,_ZN8BuildingC2ENS_9BuildingsE
FNDA:0,_ZN8BuildingC2ENS_9BuildingsE
DA:3,0
DA:5,0
DA:7,0
DA:9,0
DA:11,0
DA:13,0
DA:15,0
DA:17,0
DA:19,0
DA:21,0
DA:23,0
DA:25,0
DA:27,0
DA:29,0
DA:31,0
DA:33,0
DA:35,0
DA:37,0
end_of_record
SF:/usr/include/x86_64-linux-gnu/qt5/QtCore/qrefcount.h
FN:65,_ZN9QtPrivate8RefCount5derefEv
FNDA:0,_ZN9QtPrivate8RefCount5derefEv
DA:65,0
DA:68,0
DA:71,0
DA:73,0
end_of_record
SF:/usr/include/x86_64-linux-gnu/qt5/QtCore/qstring.h
FN:699,_ZN7QStringC2EPKc
FNDA:0,_ZN7QStringC2EPKc
FN:1135,_ZN7QStringD2Ev
FNDA:0,_ZN7QStringD2Ev
DA:699,0
DA:700,0
DA:701,0
DA:1135,0
end_of_record
TN:
SF:/usr/include/x86_64-linux-gnu/qt5/QtCore/qatomic_cxx11.h
DA:271,14
end_of_record
SF:/usr/include/c++/9/bits/atomic_base.h
DA:279,4
DA:327,14
DA:419,17
end_of_record
SF:/usr/include/x86_64-linux-gnu/qt5/QtCore/qrect.h
DA:184,4
DA:185,4
end_of_record
SF:/usr/include/x86_64-linux-gnu/qt5/QtCore/qflags.h
DA:121,1
end_of_record
SF:/usr/include/x86_64-linux-gnu/qt5/QtCore/qarraydata.h
DA:239,0
DA:240,0
end_of_record
SF:/usr/include/x86_64-linux-gnu/qt5/QtWidgets/qwidget.h
DA:839,1
end_of_record
SF:/home/user/Desktop/VS projekat/2023_Analysis_timesweeper/build-TimesweeperUnitTests-Desktop-Release/ui_Menu.h
FN:27,_ZN7Ui_Menu7setupUiEP7QWidget
FNDA:1,_ZN7Ui_Menu7setupUiEP7QWidget
FN:109,_ZN7Ui_Menu13retranslateUiEP7QWidget
FNDA:1,_ZN7Ui_Menu13retranslateUiEP7QWidget
DA:27,1
DA:29,1
DA:30,1
DA:32,1
DA:38,1
DA:39,1
DA:40,1
DA:41,1
DA:56,1
DA:57,1
DA:58,1
DA:59,1
DA:60,1
DA:75,1
DA:76,1
DA:77,1
DA:78,1
DA:88,1
DA:89,1
DA:90,1
DA:91,1
DA:104,1
DA:106,1
DA:107,1
DA:109,1
DA:111,1
DA:112,1
DA:113,1
DA:114,1
DA:115,1
DA:116,1
end_of_record
SF:/usr/include/x86_64-linux-gnu/qt5/QtCore/qobjectdefs_impl.h
FN:407,_ZN9QtPrivate11QSlotObjectIM4MenuFvvENS_4ListIJEEEvE4implEiPNS_15QSlotObjectBaseEP7QObjectPPvPb
FNDA:4,_ZN9QtPrivate11QSlotObjectIM4MenuFvvENS_4ListIJEEEvE4implEiPNS_15QSlotObjectBaseEP7QObjectPPvPb
DA:152,0
DA:387,4
DA:403,4
DA:407,4
DA:409,4
DA:410,4
DA:411,4
DA:413,0
DA:415,0
DA:416,0
DA:417,0
DA:418,0
DA:419,4
DA:421,4
DA:423,4
end_of_record
SF:/usr/include/x86_64-linux-gnu/qt5/QtCore/qobject.h
FN:228,_ZN7QObject7connectIM15QAbstractButtonFvbEM4MenuFvvEEEN11QMetaObject10ConnectionEPKN9QtPrivate15FunctionPointerIT_E6ObjectESB_PKNSA_IT0_E6ObjectESG_N2Qt14ConnectionTypeE
FNDA:4,_ZN7QObject7connectIM15QAbstractButtonFvbEM4MenuFvvEEEN11QMetaObject10ConnectionEPKN9QtPrivate15FunctionPointerIT_E6ObjectESB_PKNSA_IT0_E6ObjectESG_N2Qt14ConnectionTypeE
DA:228,4
DA:247,4
DA:252,4
DA:254,4
end_of_record
SF:/usr/include/x86_64-linux-gnu/qt5/QtCore/qrefcount.h
FN:65,_ZN9QtPrivate8RefCount5derefEv
FNDA:17,_ZN9QtPrivate8RefCount5derefEv
DA:65,17
DA:68,17
DA:71,17
DA:73,14
end_of_record
SF:/home/user/Desktop/VS projekat/2023_Analysis_timesweeper/06-timesweeper/timesweeper/Source/Menu.cpp
FN:12,_ZN4MenuC2EP7QWidget
FNDA:1,_ZN4MenuC2EP7QWidget
FN:29,_ZN4Menu18startButtonClickedEv
FNDA:0,_ZN4Menu18startButtonClickedEv
FN:39,_ZN4Menu17quitButtonClickedEv
FNDA:0,_ZN4Menu17quitButtonClickedEv
FN:44,_ZN4Menu20optionsButtonClickedEv
FNDA:0,_ZN4Menu20optionsButtonClickedEv
FN:49,_ZN4Menu17helpButtonClickedEv
FNDA:0,_ZN4Menu17helpButtonClickedEv
DA:12,1
DA:13,1
DA:15,1
DA:16,1
DA:17,1
DA:18,1
DA:20,1
DA:21,1
DA:22,1
DA:23,1
DA:25,1
DA:26,1
DA:27,1
DA:29,0
DA:31,0
DA:33,0
DA:35,0
DA:36,0
DA:37,0
DA:39,0
DA:41,0
DA:44,0
DA:46,0
DA:47,0
DA:49,0
DA:51,0
DA:52,0
end_of_record
SF:/usr/include/x86_64-linux-gnu/qt5/QtCore/qsize.h
DA:119,1
end_of_record
SF:/usr/include/x86_64-linux-gnu/qt5/QtCore/qstring.h
FN:699,_ZN7QStringC2EPKc
FNDA:1,_ZN7QStringC2EPKc
FN:1135,_ZN7QStringD2Ev
FNDA:17,_ZN7QStringD2Ev
DA:572,10
DA:699,1
DA:700,1
DA:701,1
DA:942,1
DA:1134,2
DA:1135,17
end_of_record
TN:
SF:/usr/include/x86_64-linux-gnu/qt5/QtCore/qsize.h
DA:119,15
end_of_record
SF:/usr/include/x86_64-linux-gnu/qt5/QtCore/qstring.h
FN:570,_ZN7QString8fromUtf8EPKci
FNDA:36,_ZN7QString8fromUtf8EPKci
FN:699,_ZN7QStringC2EPKc
FNDA:63,_ZN7QStringC2EPKc
FN:1135,_ZN7QStringD2Ev
FNDA:195,_ZN7QStringD2Ev
FN:1358,_ZplPKcRK7QString
FNDA:18,_ZplPKcRK7QString
DA:483,18
DA:570,36
DA:572,66
DA:699,63
DA:700,63
DA:701,63
DA:942,15
DA:1134,0
DA:1135,195
DA:1358,18
DA:1359,36
end_of_record
SF:/usr/include/c++/9/typeinfo
DA:123,15
DA:124,15
end_of_record
SF:/home/user/Desktop/VS projekat/2023_Analysis_timesweeper/06-timesweeper/timesweeper/Source/Game.cpp
FN:16,_ZN4GameC2Ev
FNDA:15,_ZN4GameC2Ev
FN:53,_ZN4Game14mouseMoveEventEP11QMouseEvent
FNDA:0,_ZN4Game14mouseMoveEventEP11QMouseEvent
FN:59,_ZN4Game15mousePressEventEP11QMouseEvent
FNDA:0,_ZN4Game15mousePressEventEP11QMouseEvent
FN:68,_ZN4Game11showCreditsEv
FNDA:0,_ZN4Game11showCreditsEv
FN:81,_ZN4Game9playMusicEv
FNDA:18,_ZN4Game9playMusicEv
FN:89,_ZN4Game17makeGameOverLabelEv
FNDA:15,_ZN4Game17makeGameOverLabelEv
FN:97,_ZN4Game14makePauseLabelEv
FNDA:15,_ZN4Game14makePauseLabelEv
FN:106,_ZN4Game21setCurrentLevelPortalEP6Portal
FNDA:0,_ZN4Game21setCurrentLevelPortalEP6Portal
FN:108,_ZN4Game10getLevelIDEv
FNDA:147,_ZN4Game10getLevelIDEv
FN:110,_ZNK4Game10getSoundOnEv
FNDA:1,_ZNK4Game10getSoundOnEv
FN:112,_ZN4Game10setSoundOnEb
FNDA:0,_ZN4Game10setSoundOnEb
FN:114,_ZNK4Game13getIsGameOverEv
FNDA:2,_ZNK4Game13getIsGameOverEv
FN:116,_ZN4Game13setIsGameOverEb
FNDA:0,_ZN4Game13setIsGameOverEb
FN:118,_ZNK4Game5getUiEv
FNDA:0,_ZNK4Game5getUiEv
FN:120,_ZNK4Game16getGameOverLabelEv
FNDA:3,_ZNK4Game16getGameOverLabelEv
FN:122,_ZNK4Game13getPauseLabelEv
FNDA:2,_ZNK4Game13getPauseLabelEv
FN:126,_ZN4Game11changeLevelEv
FNDA:18,_ZN4Game11changeLevelEv
FN:175,_ZN4Game15triggerDialogueEv
FNDA:0,_ZN4Game15triggerDialogueEv
FN:181,_ZN4Game12setHealthBarEv
FNDA:0,_ZN4Game12setHealthBarEv
FN:200,_ZN4Game8gameOverEv
FNDA:4,_ZN4Game8gameOverEv
DA:16,15
DA:18,15
DA:19,15
DA:21,15
DA:22,15
DA:23,15
DA:25,15
DA:26,15
DA:29,15
DA:30,15
DA:32,15
DA:33,15
DA:34,15
DA:36,15
DA:37,15
DA:38,15
DA:40,15
DA:41,15
DA:42,15
DA:43,15
DA:45,15
DA:47,15
DA:48,15
DA:50,15
DA:51,15
DA:53,0
DA:55,0
DA:56,0
DA:57,0
DA:59,0
DA:61,0
DA:63,0
DA:65,0
DA:66,0
DA:68,0
DA:70,0
DA:72,0
DA:73,0
DA:74,0
DA:75,0
DA:77,0
DA:78,0
DA:79,0
DA:81,18
DA:83,18
DA:85,3
DA:87,18
DA:89,15
DA:91,15
DA:92,15
DA:93,15
DA:94,15
DA:95,15
DA:97,15
DA:99,15
DA:100,15
DA:101,15
DA:102,15
DA:103,15
DA:106,0
DA:108,147
DA:110,1
DA:112,0
DA:114,2
DA:116,0
DA:118,0
DA:120,3
DA:122,2
DA:126,18
DA:128,18
DA:130,6
DA:131,6
DA:133,6
DA:134,3
DA:137,0
DA:138,0
DA:143,18
DA:144,18
DA:145,18
DA:147,18
DA:149,18
DA:151,18
DA:152,18
DA:154,18
DA:156,3
DA:157,3
DA:159,18
DA:161,18
DA:163,3
DA:166,18
DA:168,18
DA:169,36
DA:170,18
DA:172,18
DA:173,18
DA:175,0
DA:177,0
DA:178,0
DA:179,0
DA:181,0
DA:183,0
DA:184,0
DA:186,0
DA:187,0
DA:189,0
DA:191,0
DA:195,0
DA:196,0
DA:197,0
DA:198,0
DA:200,4
DA:202,4
DA:203,4
DA:204,4
DA:205,4
DA:206,4
end_of_record
SF:/usr/include/x86_64-linux-gnu/qt5/QtCore/qrefcount.h
FN:54,_ZN9QtPrivate8RefCount3refEv
FNDA:18,_ZN9QtPrivate8RefCount3refEv
FN:65,_ZN9QtPrivate8RefCount5derefEv
FNDA:195,_ZN9QtPrivate8RefCount5derefEv
DA:54,18
DA:57,18
DA:60,18
DA:65,195
DA:68,195
DA:71,195
DA:73,180
end_of_record
SF:/usr/include/x86_64-linux-gnu/qt5/QtCore/qobject.h
FN:228,_ZN7QObject7connectIM15PlayerCharacterFvvEM4GameFvvEEEN11QMetaObject10ConnectionEPKN9QtPrivate15FunctionPointerIT_E6ObjectESB_PKNSA_IT0_E6ObjectESG_N2Qt14ConnectionTypeE
FNDA:60,_ZN7QObject7connectIM15PlayerCharacterFvvEM4GameFvvEEEN11QMetaObject10ConnectionEPKN9QtPrivate15FunctionPointerIT_E6ObjectESB_PKNSA_IT0_E6ObjectESG_N2Qt14ConnectionTypeE
DA:228,60
DA:252,60
DA:254,60
end_of_record
SF:/usr/include/x86_64-linux-gnu/qt5/QtCore/qlist.h
FN:172,_ZN5QListIP13QGraphicsItemE6detachEv
FNDA:6,_ZN5QListIP13QGraphicsItemE6detachEv
FN:786,_ZN5QListIP13QGraphicsItemE13detach_helperEi
FNDA:0,_ZN5QListIP13QGraphicsItemE13detach_helperEi
FN:827,_ZN5QListIP13QGraphicsItemED2Ev
FNDA:0,_ZN5QListIP13QGraphicsItemED2Ev
DA:116,3
DA:117,3
DA:172,6
DA:264,3
DA:324,3
DA:328,3
DA:488,0
DA:489,0
DA:786,0
DA:788,0
DA:789,0
DA:791,0
DA:798,0
DA:800,0
DA:805,0
DA:806,0
DA:827,0
DA:829,0
DA:830,0
DA:831,0
DA:870,0
DA:871,0
end_of_record
SF:/usr/include/x86_64-linux-gnu/qt5/QtCore/qobjectdefs_impl.h
FN:407,_ZN9QtPrivate11QSlotObjectIM4GameFvvENS_4ListIJEEEvE4implEiPNS_15QSlotObjectBaseEP7QObjectPPvPb
FNDA:0,_ZN9QtPrivate11QSlotObjectIM4GameFvvENS_4ListIJEEEvE4implEiPNS_15QSlotObjectBaseEP7QObjectPPvPb
DA:152,0
DA:387,60
DA:403,0
DA:407,0
DA:409,0
DA:410,0
DA:411,0
DA:413,0
DA:415,0
DA:416,0
DA:417,0
DA:418,0
DA:419,0
DA:421,0
DA:423,60
end_of_record
SF:/usr/include/x86_64-linux-gnu/qt5/QtWidgets/qwidget.h
DA:809,15
DA:839,15
DA:842,45
end_of_record
SF:/usr/include/x86_64-linux-gnu/qt5/QtGui/qevent.h
DA:121,0
end_of_record
SF:/usr/include/x86_64-linux-gnu/bits/string_fortified.h
DA:34,0
end_of_record
SF:/usr/include/c++/9/bits/move.h
DA:193,15
DA:194,15
DA:195,15
end_of_record
SF:/usr/include/x86_64-linux-gnu/qt5/QtCore/qpoint.h
FN:407,_ZNK7QPointF7toPointEv
FNDA:0,_ZNK7QPointF7toPointEv
DA:407,0
DA:409,0
end_of_record
SF:/usr/include/x86_64-linux-gnu/qt5/QtCore/qglobal.h
DA:584,0
end_of_record
SF:/usr/include/x86_64-linux-gnu/qt5/QtCore/qarraydata.h
DA:239,120
DA:240,120
end_of_record
SF:/usr/include/x86_64-linux-gnu/qt5/QtCore/qbasicatomic.h
DA:114,18
end_of_record
SF:/usr/include/x86_64-linux-gnu/qt5/QtCore/qflags.h
DA:120,48
DA:121,60
end_of_record
SF:/home/user/Desktop/VS projekat/2023_Analysis_timesweeper/build-TimesweeperUnitTests-Desktop-Release/ui_Game.h
FN:22,_ZN7Ui_Game7setupUiEP7QWidget
FNDA:15,_ZN7Ui_Game7setupUiEP7QWidget
DA:22,15
DA:24,15
DA:25,15
DA:27,15
DA:41,15
DA:43,15
DA:44,15
end_of_record
SF:/usr/include/c++/9/bits/atomic_base.h
DA:279,60
DA:319,18
DA:327,180
DA:419,219
end_of_record
SF:/usr/include/x86_64-linux-gnu/qt5/QtCore/qrect.h
DA:184,45
DA:185,45
end_of_record
SF:/usr/include/x86_64-linux-gnu/qt5/QtCore/qatomic_cxx11.h
DA:271,180
end_of_record
TN:
SF:/home/user/Desktop/VS projekat/2023_Analysis_timesweeper/06-timesweeper/timesweeper/Headers/Game.h
end_of_record
SF:/usr/include/x86_64-linux-gnu/qt5/QtCore/qrefcount.h
FN:54,_ZN9QtPrivate8RefCount3refEv
FNDA:1,_ZN9QtPrivate8RefCount3refEv
FN:65,_ZN9QtPrivate8RefCount5derefEv
FNDA:12,_ZN9QtPrivate8RefCount5derefEv
DA:54,1
DA:57,1
DA:60,1
DA:65,12
DA:68,12
DA:71,12
DA:73,8
end_of_record
SF:/usr/include/x86_64-linux-gnu/qt5/QtCore/qobjectdefs.h
DA:293,0
DA:444,0
DA:605,1
end_of_record
SF:/usr/include/x86_64-linux-gnu/qt5/QtTest/qtesteventloop.h
FN:108,_ZN14QTestEventLoop8exitLoopEv
FNDA:0,_ZN14QTestEventLoop8exitLoopEv
DA:54,0
DA:60,1
DA:108,0
DA:110,0
DA:112,0
DA:113,0
DA:116,0
DA:117,0
DA:118,0
DA:120,0
DA:121,0
end_of_record
SF:/usr/include/x86_64-linux-gnu/bits/string_fortified.h
DA:34,0
DA:71,0
end_of_record
SF:/home/user/Desktop/VS projekat/2023_Analysis_timesweeper/06-timesweeper/timesweeper/Headers/Menu.h
DA:14,1
end_of_record
SF:/usr/include/x86_64-linux-gnu/qt5/QtWidgets/qwidget.h
DA:868,3
end_of_record
SF:/usr/include/c++/9/bits/atomic_base.h
DA:319,0
DA:327,8
DA:419,15
end_of_record
SF:/usr/include/x86_64-linux-gnu/qt5/QtCore/qflags.h
DA:120,0
end_of_record
SF:/usr/include/x86_64-linux-gnu/qt5/QtCore/qbytearray.h
FN:476,_ZN10QByteArrayD2Ev
FNDA:2,_ZN10QByteArrayD2Ev
DA:475,1
DA:476,2
end_of_record
SF:/usr/include/x86_64-linux-gnu/qt5/QtCore/qvector.h
FN:73,_ZN7QVectorIiED2Ev
FNDA:1,_ZN7QVectorIiED2Ev
FN:396,_ZN7QVectorIiE7reserveEi
FNDA:1,_ZN7QVectorIiE7reserveEi
FN:552,_ZN7QVectorIiE11reallocDataEii6QFlagsIN10QArrayData16AllocationOptionEE
FNDA:0,_ZN7QVectorIiE11reallocDataEii6QFlagsIN10QArrayData16AllocationOptionEE
FN:676,_ZN7QVectorIiE6appendERKi
FNDA:0,_ZN7QVectorIiE6appendERKi
DA:69,1
DA:73,1
DA:236,2
DA:283,0
DA:331,0
DA:333,0
DA:396,1
DA:398,1
DA:399,0
DA:402,1
DA:405,0
DA:407,1
DA:430,0
DA:544,0
DA:552,0
DA:555,0
DA:559,0
DA:560,0
DA:563,0
DA:564,0
DA:570,0
DA:572,0
DA:573,0
DA:592,0
DA:593,0
DA:596,0
DA:600,0
DA:603,0
DA:615,0
DA:617,0
DA:619,0
DA:624,0
DA:627,0
DA:629,0
DA:634,0
DA:635,0
DA:636,0
DA:639,0
DA:641,0
DA:644,0
DA:655,0
DA:676,0
DA:678,0
DA:679,0
DA:680,0
DA:681,0
DA:682,0
DA:687,0
DA:693,0
DA:695,0
DA:696,0
end_of_record
SF:/usr/include/x86_64-linux-gnu/qt5/QtCore/qlist.h
FN:459,_ZN5QListIS_I8QVariantEE9node_copyEPNS2_4NodeES4_S4_
FNDA:2,_ZN5QListIS_I8QVariantEE9node_copyEPNS2_4NodeES4_S4_
FN:459,_ZN5QListI8QVariantE9node_copyEPNS1_4NodeES3_S3_
FNDA:0,_ZN5QListI8QVariantE9node_copyEPNS1_4NodeES3_S3_
FN:571,_ZN5QListI8QVariantE7reserveEi
FNDA:1,_ZN5QListI8QVariantE7reserveEi
FN:582,_ZN5QListI8QVariantE6appendERKS0_
FNDA:0,_ZN5QListI8QVariantE6appendERKS0_
FN:582,_ZN5QListIS_I8QVariantEE6appendERKS1_
FNDA:1,_ZN5QListIS_I8QVariantEE6appendERKS1_
FN:756,_ZN5QListI8QVariantE18detach_helper_growEii
FNDA:0,_ZN5QListI8QVariantE18detach_helper_growEii
FN:756,_ZN5QListIS_I8QVariantEE18detach_helper_growEii
FNDA:1,_ZN5QListIS_I8QVariantEE18detach_helper_growEii
FN:786,_ZN5QListI8QVariantE13detach_helperEi
FNDA:0,_ZN5QListI8QVariantE13detach_helperEi
FN:809,_ZN5QListI8QVariantEC2ERKS1_
FNDA:1,_ZN5QListI8QVariantEC2ERKS1_
FN:827,_ZN5QListIP13QGraphicsItemED2Ev
FNDA:5,_ZN5QListIP13QGraphicsItemED2Ev
FN:827,_ZN5QListI10QByteArrayED2Ev
FNDA:0,_ZN5QListI10QByteArrayED2Ev
FN:827,_ZN5QListIS_I8QVariantEED2Ev
FNDA:1,_ZN5QListIS_I8QVariantEED2Ev
FN:827,_ZN5QListI8QVariantED2Ev
FNDA:2,_ZN5QListI8QVariantED2Ev
DA:100,0
DA:113,3
DA:115,0
DA:116,4
DA:117,1
DA:151,2
DA:345,3
DA:388,0
DA:439,1
DA:449,1
DA:455,0
DA:459,2
DA:477,2
DA:478,0
DA:479,0
DA:480,0
DA:482,0
DA:483,0
DA:484,0
DA:485,0
DA:491,2
DA:459,0
DA:464,0
DA:465,0
DA:466,0
DA:467,0
DA:469,0
DA:470,0
DA:471,0
DA:472,0
DA:491,0
DA:499,0
DA:545,0
DA:571,1
DA:573,1
DA:574,0
DA:575,0
DA:577,0
DA:579,1
DA:582,0
DA:584,0
DA:585,0
DA:587,0
DA:588,0
DA:589,0
DA:590,0
DA:594,0
DA:596,0
DA:597,0
DA:598,0
DA:599,0
DA:613,0
DA:582,1
DA:584,1
DA:585,1
DA:588,0
DA:589,0
DA:590,0
DA:605,0
DA:606,0
DA:608,0
DA:610,0
DA:613,1
DA:756,0
DA:758,0
DA:759,0
DA:761,0
DA:762,0
DA:763,0
DA:764,0
DA:765,0
DA:766,0
DA:769,0
DA:770,0
DA:771,0
DA:772,0
DA:773,0
DA:774,0
DA:775,0
DA:776,0
DA:779,0
DA:780,0
DA:782,0
DA:756,1
DA:758,1
DA:759,1
DA:761,1
DA:762,1
DA:763,0
DA:764,0
DA:765,0
DA:766,0
DA:769,1
DA:770,1
DA:771,0
DA:773,0
DA:774,0
DA:775,0
DA:776,0
DA:779,1
DA:780,0
DA:782,1
DA:786,0
DA:788,0
DA:789,0
DA:791,0
DA:792,0
DA:793,0
DA:794,0
DA:795,0
DA:798,0
DA:799,0
DA:800,0
DA:809,1
DA:810,1
DA:812,1
DA:813,0
DA:816,0
DA:817,0
DA:818,0
DA:819,0
DA:820,0
DA:821,0
DA:824,1
DA:827,5
DA:829,5
DA:830,5
DA:831,5
DA:827,0
DA:829,0
DA:830,0
DA:831,0
DA:827,1
DA:829,1
DA:830,1
DA:831,1
DA:827,2
DA:829,2
DA:830,0
DA:831,2
DA:870,5
DA:871,5
end_of_record
SF:/usr/include/x86_64-linux-gnu/qt5/QtCore/qlogging.h
DA:69,0
end_of_record
SF:/usr/include/x86_64-linux-gnu/qt5/QtTest/qtest.h
FN:153,_ZN5QTest8toStringI7QPointFEEPcRKT_
FNDA:2,_ZN5QTest8toStringI7QPointFEEPcRKT_
DA:153,2
DA:155,2
DA:156,2
DA:157,2
end_of_record
SF:/home/user/Desktop/VS projekat/2023_Analysis_timesweeper/build-TimesweeperUnitTests-Desktop-Release/tst_timesweeper.moc
FN:151,_ZN11timesweeper18qt_static_metacallEP7QObjectN11QMetaObject4CallEiPPv
FNDA:63,_ZN11timesweeper18qt_static_metacallEP7QObjectN11QMetaObject4CallEiPPv
FN:196,_ZNK11timesweeper10metaObjectEv
FNDA:29,_ZNK11timesweeper10metaObjectEv
FN:201,_ZN11timesweeper11qt_metacastEPKc
FNDA:0,_ZN11timesweeper11qt_metacastEPKc
FN:209,_ZN11timesweeper11qt_metacallEN11QMetaObject4CallEiPPv
FNDA:0,_ZN11timesweeper11qt_metacallEN11QMetaObject4CallEiPPv
DA:151,63
DA:153,63
DA:156,63
DA:157,21
DA:158,21
DA:159,1
DA:160,1
DA:161,1
DA:162,1
DA:163,1
DA:164,1
DA:165,1
DA:166,1
DA:167,1
DA:168,1
DA:169,1
DA:170,1
DA:171,1
DA:172,1
DA:173,1
DA:174,1
DA:175,1
DA:176,1
DA:177,1
DA:178,1
DA:179,1
DA:184,63
DA:196,29
DA:198,29
DA:201,0
DA:203,0
DA:204,0
DA:206,0
DA:209,0
DA:211,0
DA:212,0
DA:214,0
DA:215,0
DA:216,0
DA:217,0
DA:218,0
DA:219,0
DA:220,0
DA:221,0
end_of_record
SF:/home/user/Desktop/VS projekat/2023_Analysis_timesweeper/TimesweeperUnitTests/tst_timesweeper.cpp
FN:72,_ZN11timesweeperC2Ev
FNDA:1,_ZN11timesweeperC2Ev
FN:77,_ZN11timesweeperD2Ev
FNDA:1,_ZN11timesweeperD2Ev
FN:77,_ZN11timesweeperD0Ev
FNDA:0,_ZN11timesweeperD0Ev
FN:82,_ZN11timesweeper4initEv
FNDA:21,_ZN11timesweeper4initEv
FN:88,_ZN11timesweeper7cleanupEv
FNDA:21,_ZN11timesweeper7cleanupEv
FN:93,_ZN11timesweeper31testIsLevelID2AfterGameCreationEv
FNDA:1,_ZN11timesweeper31testIsLevelID2AfterGameCreationEv
FN:101,_ZN11timesweeper40testIsPlayerInitialisedAfterGameCreationEv
FNDA:1,_ZN11timesweeper40testIsPlayerInitialisedAfterGameCreationEv
FN:107,_ZN11timesweeper30testIsSoundOnAfterGameCreationEv
FNDA:1,_ZN11timesweeper30testIsSoundOnAfterGameCreationEv
FN:115,_ZN11timesweeper35testMediaPlayerSetAfterGameCreationEv
FNDA:1,_ZN11timesweeper35testMediaPlayerSetAfterGameCreationEv
FN:121,_ZN11timesweeper33testMainTimerSetAfterGameCreationEv
FNDA:1,_ZN11timesweeper33testMainTimerSetAfterGameCreationEv
FN:127,_ZN11timesweeper50testGameOverLabelCreatedAndHiddenAfterGameCreationEv
FNDA:1,_ZN11timesweeper50testGameOverLabelCreatedAndHiddenAfterGameCreationEv
FN:134,_ZN11timesweeper47testPauseLabelCreatedAndHiddenAfterGameCreationEv
FNDA:1,_ZN11timesweeper47testPauseLabelCreatedAndHiddenAfterGameCreationEv
FN:141,_ZN11timesweeper36testIsLevelIDChangesAfterChangeLevelEv
FNDA:1,_ZN11timesweeper36testIsLevelIDChangesAfterChangeLevelEv
FN:150,_ZN11timesweeper34testIsLevelChangedAfterChangeLevelEv
FNDA:1,_ZN11timesweeper34testIsLevelChangedAfterChangeLevelEv
FN:160,_ZN11timesweeper36testPlayerPersistsThroughChangeLevelEv
FNDA:1,_ZN11timesweeper36testPlayerPersistsThroughChangeLevelEv
FN:170,_ZN11timesweeper31testMainTimerStopedWhenGameOverEv
FNDA:1,_ZN11timesweeper31testMainTimerStopedWhenGameOverEv
FN:178,_ZN11timesweeper27testMusicPausedWhenGameOverEv
FNDA:1,_ZN11timesweeper27testMusicPausedWhenGameOverEv
FN:186,_ZN11timesweeper30testIsGameOverTrueWhenGameOverEv
FNDA:1,_ZN11timesweeper30testIsGameOverTrueWhenGameOverEv
FN:194,_ZN11timesweeper34testGameOverLabelShownWhenGameOverEv
FNDA:1,_ZN11timesweeper34testGameOverLabelShownWhenGameOverEv
FN:202,_ZN11timesweeper42testIsGunArmInitializedAfterPlayerCreationEv
FNDA:1,_ZN11timesweeper42testIsGunArmInitializedAfterPlayerCreationEv
FN:209,_ZN11timesweeper44testIsShoulderPositionSetAfterPlayerCreationEv
FNDA:1,_ZN11timesweeper44testIsShoulderPositionSetAfterPlayerCreationEv
FN:216,_ZN11timesweeper32testIncreaseHealthWhileMaxHealthEv
FNDA:1,_ZN11timesweeper32testIncreaseHealthWhileMaxHealthEv
FN:226,_ZN11timesweeper35testIncreaseHealthWhileNotMaxHealthEv
FNDA:1,_ZN11timesweeper35testIncreaseHealthWhileNotMaxHealthEv
FN:237,_ZN11timesweeper35testDecreaseHealthWhileNotAt0HealthEv
FNDA:1,_ZN11timesweeper35testDecreaseHealthWhileNotAt0HealthEv
FN:247,_ZN11timesweeper32testDecreaseHealthWhileAt0HealthEv
FNDA:1,_ZN11timesweeper32testDecreaseHealthWhileAt0HealthEv
FN:262,_ZN11timesweeper39testShootProjectileCreatesNewProjectileEv
FNDA:1,_ZN11timesweeper39testShootProjectileCreatesNewProjectileEv
FN:275,main
FNDA:1,main
DA:72,1
DA:75,1
DA:77,0
DA:80,0
DA:77,1
DA:80,1
DA:82,21
DA:84,21
DA:85,21
DA:86,21
DA:88,21
DA:89,21
DA:90,21
DA:91,21
DA:93,1
DA:95,1
DA:96,1
DA:98,1
DA:101,1
DA:103,1
DA:104,1
DA:107,1
DA:109,1
DA:110,1
DA:112,1
DA:115,1
DA:117,1
DA:118,1
DA:121,1
DA:123,1
DA:124,1
DA:127,1
DA:129,1
DA:130,1
DA:131,1
DA:134,1
DA:136,1
DA:137,1
DA:138,1
DA:141,1
DA:143,1
DA:144,1
DA:145,1
DA:147,1
DA:150,1
DA:152,1
DA:153,1
DA:154,1
DA:155,1
DA:157,1
DA:160,1
DA:162,1
DA:163,1
DA:164,1
DA:165,1
DA:170,1
DA:172,1
DA:173,1
DA:175,1
DA:178,1
DA:180,1
DA:181,1
DA:183,1
DA:186,1
DA:188,1
DA:189,1
DA:191,1
DA:194,1
DA:196,1
DA:197,1
DA:199,1
DA:202,1
DA:204,1
DA:206,1
DA:209,1
DA:211,1
DA:213,1
DA:216,1
DA:218,1
DA:219,1
DA:220,1
DA:221,1
DA:223,1
DA:226,1
DA:228,1
DA:229,1
DA:230,1
DA:231,1
DA:232,1
DA:234,1
DA:237,1
DA:239,1
DA:240,1
DA:241,1
DA:242,1
DA:244,1
DA:247,1
DA:249,1
DA:250,2
DA:253,9
DA:254,8
DA:257,1
DA:259,1
DA:262,1
DA:264,1
DA:266,1
DA:267,1
DA:268,1
DA:269,1
DA:270,1
DA:272,1
DA:275,1
end_of_record
SF:/usr/include/x86_64-linux-gnu/qt5/QtCore/qpoint.h
FN:352,_ZeqRK7QPointFS1_
FNDA:1,_ZeqRK7QPointFS1_
DA:352,1
DA:354,2
DA:355,3
DA:367,1
end_of_record
SF:/usr/include/x86_64-linux-gnu/qt5/QtCore/qglobal.h
DA:581,0
DA:594,2
DA:829,4
end_of_record
SF:/usr/include/x86_64-linux-gnu/qt5/QtTest/qtestcase.h
FN:356,_ZN5QTest8qCompareI7QPointFEEbRKT_S4_PKcS6_S6_i
FNDA:1,_ZN5QTest8qCompareI7QPointFEEbRKT_S4_PKcS6_S6_i
FN:356,_ZN5QTest8qCompareIbEEbRKT_S3_PKcS5_S5_i
FNDA:1,_ZN5QTest8qCompareIbEEbRKT_S3_PKcS5_S5_i
FN:356,_ZN5QTest8qCompareIiEEbRKT_S3_PKcS5_S5_i
FNDA:7,_ZN5QTest8qCompareIiEEbRKT_S3_PKcS5_S5_i
DA:356,1
DA:359,1
DA:360,1
DA:356,1
DA:359,1
DA:360,1
DA:356,7
DA:359,7
DA:360,7
DA:373,1
end_of_record
SF:/usr/include/x86_64-linux-gnu/qt5/QtCore/qatomic_cxx11.h
DA:271,8
end_of_record
SF:/usr/include/x86_64-linux-gnu/qt5/QtCore/qbasicatomic.h
DA:114,0
end_of_record
SF:/usr/include/x86_64-linux-gnu/qt5/QtCore/qarraydata.h
DA:61,1
DA:208,1
DA:212,0
DA:224,0
DA:239,1
DA:240,1
DA:273,0
end_of_record
SF:/usr/include/x86_64-linux-gnu/qt5/QtTest/qsignalspy.h
FN:59,_ZN10QSignalSpyC2EPK7QObjectPKc
FNDA:1,_ZN10QSignalSpyC2EPK7QObjectPKc
FN:147,_ZN10QSignalSpy11qt_metacallEN11QMetaObject4CallEiPPv
FNDA:1,_ZN10QSignalSpy11qt_metacallEN11QMetaObject4CallEiPPv
FN:163,_ZN10QSignalSpy8initArgsERK11QMetaMethodPK7QObject
FNDA:1,_ZN10QSignalSpy8initArgsERK11QMetaMethodPK7QObject
FN:187,_ZN10QSignalSpy10appendArgsEPPv
FNDA:1,_ZN10QSignalSpy10appendArgsEPPv
DA:59,1
DA:60,1
DA:62,1
DA:63,1
DA:64,0
DA:65,0
DA:68,1
DA:69,0
DA:70,0
DA:73,1
DA:74,0
DA:75,0
DA:78,1
DA:79,1
DA:80,1
DA:81,1
DA:82,0
DA:83,0
DA:86,2
DA:88,0
DA:89,0
DA:91,1
DA:92,1
DA:147,1
DA:149,1
DA:150,1
DA:153,1
DA:154,1
DA:155,1
DA:157,1
DA:163,1
DA:165,1
DA:166,1
DA:167,0
DA:168,0
DA:169,0
DA:170,0
DA:173,0
DA:174,0
DA:176,0
DA:177,0
DA:179,0
DA:180,0
DA:181,0
DA:185,1
DA:187,1
DA:189,1
DA:190,1
DA:191,1
DA:192,0
DA:193,0
DA:194,0
DA:196,0
DA:198,1
DA:200,1
DA:201,0
DA:202,1
end_of_record
TN:
SF:/usr/include/x86_64-linux-gnu/qt5/QtCore/qatomic_cxx11.h
DA:271,72
end_of_record
SF:/usr/include/x86_64-linux-gnu/qt5/QtCore/qbasicatomic.h
DA:114,18
end_of_record
SF:/usr/include/x86_64-linux-gnu/qt5/QtCore/qarraydata.h
DA:61,0
DA:208,0
DA:212,0
DA:224,0
DA:239,72
DA:240,72
DA:273,0
end_of_record
SF:/usr/include/x86_64-linux-gnu/qt5/QtCore/qpair.h
DA:49,0
DA:54,0
DA:57,0
DA:61,0
end_of_record
SF:/usr/include/c++/9/bits/move.h
DA:193,18
DA:194,18
DA:195,18
end_of_record
SF:/usr/include/x86_64-linux-gnu/qt5/QtCore/qlogging.h
DA:69,18
end_of_record
SF:/usr/include/x86_64-linux-gnu/qt5/QtCore/qlist.h
FN:827,_ZN5QListI7QStringED2Ev
FNDA:0,_ZN5QListI7QStringED2Ev
DA:115,0
DA:151,0
DA:156,0
DA:157,0
DA:159,0
DA:545,0
DA:827,0
DA:829,0
DA:830,0
DA:831,0
end_of_record
SF:/usr/include/x86_64-linux-gnu/qt5/QtCore/qstringlist.h
DA:99,0
end_of_record
SF:/usr/include/x86_64-linux-gnu/qt5/QtCore/qvector.h
FN:73,_ZN7QVectorI5QPairIN15DialogueHandler7SpeakerE7QStringEED2Ev
FNDA:37,_ZN7QVectorI5QPairIN15DialogueHandler7SpeakerE7QStringEED2Ev
FN:382,_ZN7QVectorI5QPairIN15DialogueHandler7SpeakerE7QStringEE6detachEv
FNDA:0,_ZN7QVectorI5QPairIN15DialogueHandler7SpeakerE7QStringEE6detachEv
FN:552,_ZN7QVectorI5QPairIN15DialogueHandler7SpeakerE7QStringEE11reallocDataEii6QFlagsIN10QArrayData16AllocationOptionEE
FNDA:0,_ZN7QVectorI5QPairIN15DialogueHandler7SpeakerE7QStringEE11reallocDataEii6QFlagsIN10QArrayData16AllocationOptionEE
FN:700,_ZN7QVectorI5QPairIN15DialogueHandler7SpeakerE7QStringEE6appendEOS4_
FNDA:0,_ZN7QVectorI5QPairIN15DialogueHandler7SpeakerE7QStringEE6appendEOS4_
DA:69,18
DA:73,37
DA:76,18
DA:78,18
DA:87,0
DA:127,0
DA:327,0
DA:328,0
DA:350,0
DA:351,0
DA:382,0
DA:384,0
DA:386,0
DA:387,0
DA:390,0
DA:393,0
DA:438,0
DA:552,0
DA:555,0
DA:559,0
DA:560,0
DA:563,0
DA:564,0
DA:570,0
DA:572,0
DA:573,0
DA:576,0
DA:580,0
DA:581,0
DA:592,0
DA:593,0
DA:596,0
DA:597,0
DA:600,0
DA:606,0
DA:607,0
DA:615,0
DA:617,0
DA:619,0
DA:624,0
DA:625,0
DA:627,0
DA:629,0
DA:634,0
DA:635,0
DA:636,0
DA:639,0
DA:641,0
DA:644,0
DA:655,0
DA:700,0
DA:702,0
DA:703,0
DA:704,0
DA:705,0
DA:708,0
DA:710,0
DA:711,0
end_of_record
SF:/usr/include/c++/9/bits/atomic_base.h
DA:319,18
DA:327,72
DA:419,127
end_of_record
SF:/usr/include/x86_64-linux-gnu/qt5/QtCore/qflags.h
DA:120,0
end_of_record
SF:/home/user/Desktop/VS projekat/2023_Analysis_timesweeper/06-timesweeper/timesweeper/Source/DialogueHandler.cpp
FN:12,_ZN15DialogueHandler18initializeDialogueEv
FNDA:18,_ZN15DialogueHandler18initializeDialogueEv
FN:62,_ZN15DialogueHandler15advanceDialogueEv
FNDA:0,_ZN15DialogueHandler15advanceDialogueEv
FN:91,_ZN15DialogueHandler17setDialogueActiveEb
FNDA:0,_ZN15DialogueHandler17setDialogueActiveEb
DA:12,18
DA:14,18
DA:15,18
DA:16,18
DA:18,36
DA:19,18
DA:21,18
DA:23,18
DA:24,18
DA:26,0
DA:28,0
DA:29,0
DA:32,0
DA:35,0
DA:38,0
DA:40,0
DA:42,0
DA:43,0
DA:46,0
DA:47,0
DA:49,0
DA:50,0
DA:52,0
DA:53,0
DA:55,0
DA:59,0
DA:62,0
DA:64,0
DA:66,0
DA:69,0
DA:72,0
DA:74,0
DA:76,0
DA:78,0
DA:80,0
DA:81,0
DA:82,0
DA:85,0
DA:87,0
DA:89,0
DA:91,0
DA:93,0
DA:94,0
end_of_record
SF:/usr/include/x86_64-linux-gnu/bits/string_fortified.h
DA:34,0
end_of_record
SF:/usr/include/x86_64-linux-gnu/qt5/QtCore/qrefcount.h
FN:54,_ZN9QtPrivate8RefCount3refEv
FNDA:18,_ZN9QtPrivate8RefCount3refEv
FN:65,_ZN9QtPrivate8RefCount5derefEv
FNDA:109,_ZN9QtPrivate8RefCount5derefEv
DA:54,18
DA:57,18
DA:60,18
DA:65,109
DA:68,109
DA:71,109
DA:73,72
DA:102,0
end_of_record
SF:/usr/include/x86_64-linux-gnu/qt5/QtCore/qstring.h
FN:570,_ZN7QString8fromUtf8EPKci
FNDA:36,_ZN7QString8fromUtf8EPKci
FN:699,_ZN7QStringC2EPKc
FNDA:0,_ZN7QStringC2EPKc
FN:1135,_ZN7QStringD2Ev
FNDA:72,_ZN7QStringD2Ev
FN:1358,_ZplPKcRK7QString
FNDA:18,_ZplPKcRK7QString
DA:234,0
DA:483,18
DA:570,36
DA:572,36
DA:620,0
DA:699,0
DA:700,0
DA:701,0
DA:957,0
DA:958,0
DA:1134,0
DA:1135,72
DA:1358,18
DA:1359,36
end_of_record
TN:
SF:/usr/include/x86_64-linux-gnu/qt5/QtCore/qatomic_cxx11.h
DA:271,0
end_of_record
SF:/usr/include/x86_64-linux-gnu/qt5/QtCore/qarraydata.h
DA:239,0
DA:240,0
end_of_record
SF:/home/user/Desktop/VS projekat/2023_Analysis_timesweeper/06-timesweeper/timesweeper/Source/Portal.cpp
FN:5,_ZN6PortalC2Ev
FNDA:0,_ZN6PortalC2Ev
DA:5,0
DA:7,0
DA:8,0
end_of_record
SF:/usr/include/c++/9/bits/atomic_base.h
DA:327,0
DA:419,0
end_of_record
SF:/usr/include/x86_64-linux-gnu/qt5/QtCore/qflags.h
DA:120,0
end_of_record
SF:/usr/include/x86_64-linux-gnu/qt5/QtCore/qstring.h
FN:699,_ZN7QStringC2EPKc
FNDA:0,_ZN7QStringC2EPKc
FN:1135,_ZN7QStringD2Ev
FNDA:0,_ZN7QStringD2Ev
DA:699,0
DA:700,0
DA:701,0
DA:1135,0
end_of_record
SF:/home/user/Desktop/VS projekat/2023_Analysis_timesweeper/06-timesweeper/timesweeper/Headers/Portal.h
end_of_record
SF:/usr/include/x86_64-linux-gnu/qt5/QtCore/qrefcount.h
FN:65,_ZN9QtPrivate8RefCount5derefEv
FNDA:0,_ZN9QtPrivate8RefCount5derefEv
DA:65,0
DA:68,0
DA:71,0
DA:73,0
end_of_record
TN:
SF:/home/user/Desktop/VS projekat/2023_Analysis_timesweeper/06-timesweeper/timesweeper/Headers/Game.h
end_of_record
SF:/home/user/Desktop/VS projekat/2023_Analysis_timesweeper/build-TimesweeperUnitTests-Desktop-Release/moc_Game.cpp
FN:75,_ZN4Game18qt_static_metacallEP7QObjectN11QMetaObject4CallEiPPv
FNDA:0,_ZN4Game18qt_static_metacallEP7QObjectN11QMetaObject4CallEiPPv
FN:101,_ZNK4Game10metaObjectEv
FNDA:1308,_ZNK4Game10metaObjectEv
FN:106,_ZN4Game11qt_metacastEPKc
FNDA:143,_ZN4Game11qt_metacastEPKc
FN:114,_ZN4Game11qt_metacallEN11QMetaObject4CallEiPPv
FNDA:94,_ZN4Game11qt_metacallEN11QMetaObject4CallEiPPv
DA:75,0
DA:77,0
DA:80,0
DA:81,0
DA:82,0
DA:83,0
DA:84,0
DA:89,0
DA:101,1308
DA:103,1308
DA:106,143
DA:108,143
DA:109,143
DA:111,143
DA:114,94
DA:116,94
DA:117,94
DA:119,0
DA:120,0
DA:121,0
DA:122,0
DA:123,0
DA:124,0
DA:125,0
DA:126,0
end_of_record
TN:
SF:/home/user/Desktop/VS projekat/2023_Analysis_timesweeper/build-TimesweeperUnitTests-Desktop-Release/moc_DialogueHandler.cpp
FN:57,_ZN15DialogueHandler18qt_static_metacallEP7QObjectN11QMetaObject4CallEiPPv
FNDA:0,_ZN15DialogueHandler18qt_static_metacallEP7QObjectN11QMetaObject4CallEiPPv
FN:75,_ZNK15DialogueHandler10metaObjectEv
FNDA:0,_ZNK15DialogueHandler10metaObjectEv
FN:80,_ZN15DialogueHandler11qt_metacastEPKc
FNDA:0,_ZN15DialogueHandler11qt_metacastEPKc
FN:88,_ZN15DialogueHandler11qt_metacallEN11QMetaObject4CallEiPPv
FNDA:0,_ZN15DialogueHandler11qt_metacallEN11QMetaObject4CallEiPPv
DA:57,0
DA:63,0
DA:75,0
DA:77,0
DA:80,0
DA:82,0
DA:83,0
DA:85,0
DA:88,0
DA:90,0
DA:91,0
end_of_record
SF:/home/user/Desktop/VS projekat/2023_Analysis_timesweeper/06-timesweeper/timesweeper/Headers/DialogueHandler.h
end_of_record
TN:
SF:/home/user/Desktop/VS projekat/2023_Analysis_timesweeper/06-timesweeper/timesweeper/Source/Pickup.cpp
FN:6,_ZN6PickupC2Ev
FNDA:0,_ZN6PickupC2Ev
DA:6,0
DA:8,0
DA:9,0
DA:10,0
end_of_record
SF:/home/user/Desktop/VS projekat/2023_Analysis_timesweeper/06-timesweeper/timesweeper/Headers/Pickup.h
end_of_record
SF:/usr/include/x86_64-linux-gnu/qt5/QtCore/qarraydata.h
DA:239,0
DA:240,0
end_of_record
SF:/usr/include/x86_64-linux-gnu/qt5/QtCore/qbasicatomic.h
DA:114,0
end_of_record
SF:/usr/include/x86_64-linux-gnu/qt5/QtCore/qatomic_cxx11.h
DA:271,0
end_of_record
SF:/usr/include/x86_64-linux-gnu/qt5/QtCore/qrefcount.h
FN:54,_ZN9QtPrivate8RefCount3refEv
FNDA:0,_ZN9QtPrivate8RefCount3refEv
FN:65,_ZN9QtPrivate8RefCount5derefEv
FNDA:0,_ZN9QtPrivate8RefCount5derefEv
DA:54,0
DA:57,0
DA:60,0
DA:65,0
DA:68,0
DA:71,0
DA:73,0
end_of_record
SF:/usr/include/x86_64-linux-gnu/qt5/QtCore/qstring.h
FN:570,_ZN7QString8fromUtf8EPKci
FNDA:0,_ZN7QString8fromUtf8EPKci
FN:1135,_ZN7QStringD2Ev
FNDA:0,_ZN7QStringD2Ev
FN:1358,_ZplPKcRK7QString
FNDA:0,_ZplPKcRK7QString
DA:483,0
DA:570,0
DA:572,0
DA:1135,0
DA:1358,0
DA:1359,0
end_of_record
SF:/usr/include/x86_64-linux-gnu/qt5/QtCore/qflags.h
DA:120,0
end_of_record
SF:/usr/include/c++/9/bits/atomic_base.h
DA:319,0
DA:327,0
DA:419,0
end_of_record
TN:
SF:/home/user/Desktop/VS projekat/2023_Analysis_timesweeper/06-timesweeper/timesweeper/Source/PlayerCharacter.cpp
FN:16,_ZN15PlayerCharacterC2Ev
FNDA:22,_ZN15PlayerCharacterC2Ev
FN:29,_ZN15PlayerCharacterD2Ev
FNDA:7,_ZN15PlayerCharacterD2Ev
FN:29,_ZN15PlayerCharacterD0Ev
FNDA:7,_ZN15PlayerCharacterD0Ev
FN:37,_ZNK15PlayerCharacter9getGunArmEv
FNDA:4,_ZNK15PlayerCharacter9getGunArmEv
FN:39,_ZNK15PlayerCharacter9getHealthEv
FNDA:15,_ZNK15PlayerCharacter9getHealthEv
FN:41,_ZNK15PlayerCharacter16getSoundEffectOnEv
FNDA:0,_ZNK15PlayerCharacter16getSoundEffectOnEv
FN:43,_ZN15PlayerCharacter16setSoundEffectOnEb
FNDA:0,_ZN15PlayerCharacter16setSoundEffectOnEb
FN:47,_ZN15PlayerCharacter13keyPressEventEP9QKeyEvent
FNDA:0,_ZN15PlayerCharacter13keyPressEventEP9QKeyEvent
FN:117,_ZN15PlayerCharacter15keyReleaseEventEP9QKeyEvent
FNDA:0,_ZN15PlayerCharacter15keyReleaseEventEP9QKeyEvent
FN:139,_ZN15PlayerCharacter10aimAtPointE6QPoint
FNDA:0,_ZN15PlayerCharacter10aimAtPointE6QPoint
FN:173,_ZN15PlayerCharacter22updateShoudlerPositionEv
FNDA:0,_ZN15PlayerCharacter22updateShoudlerPositionEv
FN:185,_ZN15PlayerCharacter15shootProjectileEv
FNDA:1,_ZN15PlayerCharacter15shootProjectileEv
FN:216,_ZN15PlayerCharacter14increaseHealthEv
FNDA:2,_ZN15PlayerCharacter14increaseHealthEv
FN:224,_ZN15PlayerCharacter14decreaseHealthEv
FNDA:11,_ZN15PlayerCharacter14decreaseHealthEv
FN:236,_ZN15PlayerCharacter7advanceEi
FNDA:0,_ZN15PlayerCharacter7advanceEi
FN:247,_ZN15PlayerCharacter4jumpEv
FNDA:0,_ZN15PlayerCharacter4jumpEv
FN:269,_ZN15PlayerCharacter4walkEv
FNDA:0,_ZN15PlayerCharacter4walkEv
FN:289,_ZN15PlayerCharacter15detectCollisionEv
FNDA:0,_ZN15PlayerCharacter15detectCollisionEv
DA:16,22
DA:18,22
DA:20,22
DA:21,22
DA:22,22
DA:23,22
DA:25,22
DA:26,22
DA:27,22
DA:29,7
DA:33,7
DA:29,14
DA:31,7
DA:32,7
DA:33,7
DA:37,4
DA:39,15
DA:41,0
DA:43,0
DA:47,0
DA:49,0
DA:51,0
DA:54,0
DA:56,0
DA:57,0
DA:58,0
DA:59,0
DA:61,0
DA:63,0
DA:64,0
DA:65,0
DA:66,0
DA:68,0
DA:70,0
DA:72,0
DA:74,0
DA:76,0
DA:78,0
DA:79,0
DA:80,0
DA:81,0
DA:82,0
DA:83,0
DA:86,0
DA:88,0
DA:90,0
DA:92,0
DA:93,0
DA:95,0
DA:97,0
DA:99,0
DA:101,0
DA:102,0
DA:104,0
DA:106,0
DA:107,0
DA:108,0
DA:111,0
DA:113,0
DA:115,0
DA:117,0
DA:119,0
DA:121,0
DA:122,0
DA:123,0
DA:125,0
DA:128,0
DA:130,0
DA:131,0
DA:132,0
DA:134,0
DA:137,0
DA:139,0
DA:141,0
DA:143,0
DA:146,0
DA:148,0
DA:150,0
DA:151,0
DA:152,0
DA:153,0
DA:155,0
DA:157,0
DA:161,0
DA:162,0
DA:163,0
DA:164,0
DA:166,0
DA:168,0
DA:171,0
DA:173,0
DA:175,0
DA:177,0
DA:179,0
DA:181,0
DA:183,0
DA:185,1
DA:187,1
DA:189,1
DA:192,1
DA:193,1
DA:194,1
DA:196,1
DA:197,1
DA:198,1
DA:200,1
DA:202,1
DA:204,0
DA:205,0
DA:206,0
DA:208,1
DA:210,1
DA:211,1
DA:214,1
DA:216,2
DA:218,2
DA:220,1
DA:222,2
DA:224,11
DA:226,11
DA:228,10
DA:230,1
DA:232,1
DA:234,11
DA:236,0
DA:238,0
DA:239,0
DA:241,0
DA:243,0
DA:244,0
DA:245,0
DA:247,0
DA:249,0
DA:251,0
DA:254,0
DA:257,0
DA:259,0
DA:260,0
DA:263,0
DA:264,0
DA:266,0
DA:267,0
DA:269,0
DA:272,0
DA:274,0
DA:276,0
DA:281,0
DA:283,0
DA:284,0
DA:286,0
DA:287,0
DA:289,0
DA:291,0
DA:293,0
DA:295,0
DA:297,0
DA:299,0
DA:300,0
DA:302,0
DA:304,0
DA:305,0
DA:306,0
DA:308,0
DA:310,0
DA:311,0
DA:312,0
DA:313,0
DA:315,0
DA:317,0
DA:318,0
DA:320,0
DA:322,0
DA:324,0
DA:326,0
DA:327,0
DA:329,0
DA:331,0
DA:332,0
DA:334,0
DA:336,0
DA:337,0
DA:338,0
DA:340,0
DA:343,0
DA:344,0
DA:346,0
DA:349,0
DA:350,0
DA:351,0
DA:353,0
DA:354,0
DA:356,0
DA:358,0
DA:364,0
DA:366,0
end_of_record
SF:/usr/include/x86_64-linux-gnu/qt5/QtCore/qrefcount.h
FN:65,_ZN9QtPrivate8RefCount5derefEv
FNDA:51,_ZN9QtPrivate8RefCount5derefEv
DA:65,51
DA:68,51
DA:71,51
DA:73,44
DA:102,0
end_of_record
SF:/usr/include/x86_64-linux-gnu/qt5/QtCore/qline.h
DA:288,1
DA:289,1
end_of_record
SF:/usr/include/x86_64-linux-gnu/qt5/QtCore/qstring.h
FN:699,_ZN7QStringC2EPKc
FNDA:44,_ZN7QStringC2EPKc
FN:1135,_ZN7QStringD2Ev
FNDA:44,_ZN7QStringD2Ev
DA:699,44
DA:700,44
DA:701,44
DA:1135,44
end_of_record
SF:/usr/include/c++/9/bits/atomic_base.h
DA:327,44
DA:419,51
end_of_record
SF:/usr/include/x86_64-linux-gnu/qt5/QtCore/qflags.h
DA:120,22
DA:121,22
end_of_record
SF:/usr/include/x86_64-linux-gnu/qt5/QtWidgets/qgraphicsscene.h
DA:131,0
end_of_record
SF:/usr/include/x86_64-linux-gnu/bits/string_fortified.h
DA:34,0
end_of_record
SF:/usr/include/x86_64-linux-gnu/qt5/QtCore/qmath.h
DA:89,1
DA:95,1
DA:233,1
end_of_record
SF:/usr/include/x86_64-linux-gnu/qt5/QtCore/qlist.h
FN:172,_ZN5QListIP13QGraphicsItemE6detachEv
FNDA:0,_ZN5QListIP13QGraphicsItemE6detachEv
FN:786,_ZN5QListIP13QGraphicsItemE13detach_helperEi
FNDA:0,_ZN5QListIP13QGraphicsItemE13detach_helperEi
FN:827,_ZN5QListIP13QGraphicsItemED2Ev
FNDA:0,_ZN5QListIP13QGraphicsItemED2Ev
DA:114,0
DA:116,0
DA:117,0
DA:172,0
DA:195,0
DA:264,0
DA:324,0
DA:328,0
DA:488,0
DA:489,0
DA:786,0
DA:788,0
DA:789,0
DA:791,0
DA:798,0
DA:800,0
DA:805,0
DA:806,0
DA:827,0
DA:829,0
DA:830,0
DA:831,0
DA:870,0
DA:871,0
end_of_record
SF:/usr/include/x86_64-linux-gnu/qt5/QtGui/qpolygon.h
DA:145,7
end_of_record
SF:/usr/include/x86_64-linux-gnu/qt5/QtCore/qvector.h
FN:73,_ZN7QVectorI7QPointFED2Ev
FNDA:7,_ZN7QVectorI7QPointFED2Ev
FN:382,_ZN7QVectorI7QPointFE6detachEv
FNDA:0,_ZN7QVectorI7QPointFE6detachEv
FN:552,_ZN7QVectorI7QPointFE11reallocDataEii6QFlagsIN10QArrayData16AllocationOptionEE
FNDA:0,_ZN7QVectorI7QPointFE11reallocDataEii6QFlagsIN10QArrayData16AllocationOptionEE
DA:69,22
DA:73,7
DA:127,0
DA:327,0
DA:328,0
DA:382,0
DA:384,0
DA:386,0
DA:387,0
DA:390,0
DA:393,0
DA:438,0
DA:544,0
DA:552,0
DA:555,0
DA:559,0
DA:560,0
DA:563,0
DA:564,0
DA:570,0
DA:572,0
DA:573,0
DA:576,0
DA:580,0
DA:581,0
DA:592,0
DA:593,0
DA:596,0
DA:600,0
DA:606,0
DA:607,0
DA:615,0
DA:617,0
DA:619,0
DA:624,0
DA:627,0
DA:629,0
DA:634,0
DA:635,0
DA:636,0
DA:639,0
DA:641,0
DA:644,0
DA:655,0
end_of_record
SF:/usr/include/c++/9/typeinfo
DA:123,0
DA:124,0
end_of_record
SF:/home/user/Desktop/VS projekat/2023_Analysis_timesweeper/06-timesweeper/timesweeper/Headers/Character.h
DA:6,7
end_of_record
SF:/home/user/Desktop/VS projekat/2023_Analysis_timesweeper/06-timesweeper/timesweeper/Headers/PlayerCharacter.h
end_of_record
SF:/usr/include/x86_64-linux-gnu/qt5/QtCore/qatomic_cxx11.h
DA:271,44
end_of_record
SF:/usr/include/x86_64-linux-gnu/qt5/QtWidgets/qgraphicsitem.h
DA:273,0
DA:275,0
DA:314,0
DA:495,1
end_of_record
SF:/usr/include/x86_64-linux-gnu/qt5/QtCore/qarraydata.h
DA:61,0
DA:208,0
DA:212,0
DA:224,0
DA:239,44
DA:240,44
DA:273,0
end_of_record
SF:/usr/include/x86_64-linux-gnu/qt5/QtCore/qpoint.h
DA:285,22
DA:287,1
DA:367,23
end_of_record
SF:/usr/include/c++/9/bits/move.h
DA:193,0
DA:194,0
DA:195,0
end_of_record
